
pic30.cof:     file format coff-pic30

Disassembly of section .reset:

00000000 <.reset>:
   0:	3e 02 04    	goto      0x23e <__reset>
   2:	00 00 00 
Disassembly of section .text:

00000200 <.handle>:
 200:	78 28 04    	goto      0x2878 <_FuncTaskLCD>
 202:	00 00 00 
 204:	8a 14 04    	goto      0x148a <_FuncTaskSend>
 206:	00 00 00 
 208:	9e 15 04    	goto      0x159e <_FuncTaskA>
 20a:	00 00 00 
 20c:	4a 16 04    	goto      0x164a <_FuncTaskB>
 20e:	00 00 00 
 210:	e6 16 04    	goto      0x16e6 <_FuncTaskC>
 212:	00 00 00 
 214:	ee 16 04    	goto      0x16ee <_FuncTaskD>
 216:	00 00 00 
 218:	7e 17 04    	goto      0x177e <_FuncTaskE>
 21a:	00 00 00 
 21c:	be 18 04    	goto      0x18be <_FuncTaskF>
 21e:	00 00 00 
 220:	fe 13 04    	goto      0x13fe <_FuncTask_TimeOut>
 222:	00 00 00 
 224:	c0 27 04    	goto      0x27c0 <_my_button>
 226:	00 00 00 

00000228 <__DefaultInterrupt>:
 228:	00 40 da    	.pword 0xda4000
 22a:	00 00 fe    	reset     

0000022c <_memcpy>:
 22c:	00 02 78    	mov.w     w0, w4
 22e:	80 01 78    	mov.w     w0, w3
 230:	01 00 37    	bra       0x234

00000232 <.L3>:
 232:	b1 59 78    	mov.b     [w1++], [w3++]

00000234 <.L2>:
 234:	02 00 42    	add.w     w4, w2, w0
 236:	80 8f 51    	sub.w     w3, w0, [w15]
 238:	fc ff 3a    	bra       NZ, 0x232
 23a:	04 00 78    	mov.w     w4, w0
 23c:	00 00 06    	return    

0000023e <__reset>:
 23e:	2f b4 20    	mov.w     #0xb42, w15
 240:	00 ff 27    	mov.w     #0x7ff0, w0
 242:	00 01 88    	mov.w     w0, 0x20
 244:	00 00 00    	nop       
 246:	05 00 07    	rcall     0x252 <__psv_init>
 248:	0c 00 07    	rcall     0x262
 24a:	2a 1e 02    	call      0x1e2a <_main>
 24c:	00 00 00 
 24e:	00 40 da    	.pword 0xda4000
 250:	00 00 fe    	reset     

00000252 <__psv_init>:
 252:	44 40 a9    	bclr.b    0x44, #0x2
 254:	00 08 20    	mov.w     #0x80, w0
 256:	00 00 e0    	cp0.w     w0
 258:	03 00 32    	bra       Z, 0x260
 25a:	00 00 20    	mov.w     #0x0, w0
 25c:	a0 01 88    	mov.w     w0, 0x34
 25e:	44 40 a8    	bset.b    0x44, #0x2

00000260 <L11>:
 260:	00 00 06    	return    

00000262 <__data_init>:
 262:	a0 e8 22    	mov.w     #0x2e8a, w0
 264:	01 00 20    	mov.w     #0x0, w1
 266:	16 00 37    	bra       0x294

00000268 <L12>:
 268:	62 00 40    	add.w     w0, #0x2, w0
 26a:	e0 80 48    	addc.w    w1, #0x0, w1
 26c:	91 01 88    	mov.w     w1, 0x32
 26e:	90 01 ba    	tblrdl.w  [w0], w3
 270:	62 00 40    	add.w     w0, #0x2, w0
 272:	e0 80 48    	addc.w    w1, #0x0, w1
 274:	91 01 88    	mov.w     w1, 0x32
 276:	90 02 ba    	tblrdl.w  [w0], w5
 278:	62 00 40    	add.w     w0, #0x2, w0
 27a:	e0 80 48    	addc.w    w1, #0x0, w1
 27c:	00 02 eb    	clr.w     w4
 27e:	60 28 e1    	cp.w      w5, #0x0
 280:	05 00 3a    	bra       NZ, 0x28c
 282:	83 01 e9    	dec.w     w3, w3
 284:	07 00 33    	bra       N, 0x294
 286:	03 80 09    	repeat    w3
 288:	00 59 eb    	clr.b     [w2++]
 28a:	04 00 37    	bra       0x294

0000028c <L21>:
 28c:	61 28 e1    	cp.w      w5, #0x1
 28e:	01 00 32    	bra       Z, 0x292
 290:	00 82 eb    	setm.w    w4

00000292 <L31>:
 292:	05 00 07    	rcall     0x29e

00000294 <L41>:
 294:	91 01 88    	mov.w     w1, 0x32
 296:	10 01 ba    	tblrdl.w  [w0], w2
 298:	02 00 e0    	cp0.w     w2
 29a:	e6 ff 3a    	bra       NZ, 0x268
 29c:	00 00 05    	retlw.w   #0x0, w0

0000029e <L13>:
 29e:	91 01 88    	mov.w     w1, 0x32
 2a0:	80 02 78    	mov.w     w0, w5
 2a2:	62 00 40    	add.w     w0, #0x2, w0
 2a4:	e0 80 48    	addc.w    w1, #0x0, w1
 2a6:	35 59 ba    	tblrdl.b  [w5++], [w2++]
 2a8:	83 01 e9    	dec.w     w3, w3
 2aa:	08 00 32    	bra       Z, 0x2bc <L22>
 2ac:	25 59 ba    	tblrdl.b  [w5--], [w2++]
 2ae:	83 01 e9    	dec.w     w3, w3
 2b0:	05 00 32    	bra       Z, 0x2bc <L22>
 2b2:	04 00 e0    	cp0.w     w4
 2b4:	f4 ff 32    	bra       Z, 0x29e
 2b6:	15 d9 ba    	tblrdh.b  [w5], [w2++]
 2b8:	83 01 e9    	dec.w     w3, w3
 2ba:	f1 ff 3a    	bra       NZ, 0x29e

000002bc <L22>:
 2bc:	00 00 06    	return    

000002be <___mulsf3>:
 2be:	88 9f be    	mov.d     w8, [w15++]
 2c0:	8a 9f be    	mov.d     w10, [w15++]
 2c2:	8c 1f 78    	mov.w     w12, [w15++]
 2c4:	ce 01 07    	rcall     0x662 <__funpack2>
 2c6:	d5 01 33    	bra       N, 0x672 <__fPropagateNaN>
 2c8:	03 86 6c    	xor.w     w9, w3, w12
 2ca:	64 50 e1    	cp.w      w10, #0x4
 2cc:	24 00 32    	bra       Z, 0x316 <aisinfinite>
 2ce:	64 20 e1    	cp.w      w4, #0x4
 2d0:	27 00 32    	bra       Z, 0x320
 2d2:	61 50 e1    	cp.w      w10, #0x1
 2d4:	22 00 32    	bra       Z, 0x31a <return8>
 2d6:	61 20 e1    	cp.w      w4, #0x1
 2d8:	21 00 32    	bra       Z, 0x31c <return2>
 2da:	8b 85 42    	add.w     w5, w11, w11
 2dc:	eb 07 b1    	sub.w     #0x7e, w11
 2de:	01 34 b8    	mul.uu    w6, w1, w8
 2e0:	00 3a b8    	mul.uu    w7, w0, w4
 2e2:	08 04 42    	add.w     w4, w8, w8
 2e4:	89 84 4a    	addc.w    w5, w9, w9
 2e6:	01 3a b8    	mul.uu    w7, w1, w4
 2e8:	00 30 b8    	mul.uu    w6, w0, w0
 2ea:	88 80 40    	add.w     w1, w8, w1
 2ec:	09 01 4a    	addc.w    w4, w9, w2
 2ee:	04 00 33    	bra       N, 0x2f8 <formsticky>
 2f0:	00 00 40    	add.w     w0, w0, w0
 2f2:	81 80 48    	addc.w    w1, w1, w1
 2f4:	02 01 49    	addc.w    w2, w2, w2
 2f6:	8b 05 e9    	dec.w     w11, w11

000002f8 <formsticky>:
 2f8:	c9 09 dd    	sl.w      w1, #0x9, w3
 2fa:	83 01 70    	ior.w     w0, w3, w3
 2fc:	01 00 32    	bra       Z, 0x300
 2fe:	13 00 20    	mov.w     #0x1, w3

00000300 <formRandSig>:
 300:	c8 14 de    	lsr.w     w2, #0x8, w9
 302:	48 14 dd    	sl.w      w2, #0x8, w8
 304:	47 09 de    	lsr.w     w1, #0x7, w2
 306:	12 00 b2    	and.w     #0x1, w2
 308:	c8 08 de    	lsr.w     w1, #0x8, w1
 30a:	08 84 70    	ior.w     w1, w8, w8
 30c:	c2 01 07    	rcall     0x692 <__fpack>

0000030e <return0>:
 30e:	01 f0 a1    	bclr.w    w1, #0xf
 310:	0c f0 a7    	btsc.w    w12, #0xf
 312:	01 f0 a0    	bset.w    w1, #0xf
 314:	b7 01 37    	bra       0x684 <__fbopExit>

00000316 <aisinfinite>:
 316:	61 20 e1    	cp.w      w4, #0x1
 318:	b9 01 32    	bra       Z, 0x68c <__fbopReturnNaN>

0000031a <return8>:
 31a:	08 01 be    	mov.d     w8, w2

0000031c <return2>:
 31c:	02 00 be    	mov.d     w2, w0
 31e:	f7 ff 37    	bra       0x30e <return0>

00000320 <bisinfinite>:
 320:	61 50 e1    	cp.w      w10, #0x1
 322:	fc ff 3a    	bra       NZ, 0x31c <return2>
 324:	b3 01 37    	bra       0x68c <__fbopReturnNaN>

00000326 <___subsf3>:
 326:	03 f0 a2    	btg.w     w3, #0xf

00000328 <___addsf3>:
 328:	88 9f be    	mov.d     w8, [w15++]
 32a:	8a 9f be    	mov.d     w10, [w15++]
 32c:	8c 1f 78    	mov.w     w12, [w15++]
 32e:	99 01 07    	rcall     0x662 <__funpack2>
 330:	a0 01 33    	bra       N, 0x672 <__fPropagateNaN>
 332:	64 50 e1    	cp.w      w10, #0x4
 334:	4f 00 32    	bra       Z, 0x3d4

00000336 <checkspecialb>:
 336:	64 20 e1    	cp.w      w4, #0x4
 338:	52 00 32    	bra       Z, 0x3de
 33a:	03 82 6c    	xor.w     w9, w3, w4
 33c:	07 00 3b    	bra       NN, 0x34c <getsign>
 33e:	09 05 d0    	sl.w      w9, w10
 340:	03 06 d0    	sl.w      w3, w12
 342:	82 0f 54    	sub.w     w8, w2, [w15]
 344:	0c 06 5d    	subb.w    w10, w12, w12
 346:	02 00 39    	bra       NC, 0x34c <getsign>
 348:	02 00 32    	bra       Z, 0x34e <gotsign>
 34a:	89 01 78    	mov.w     w9, w3

0000034c <getsign>:
 34c:	03 06 78    	mov.w     w3, w12

0000034e <gotsign>:
 34e:	85 82 55    	sub.w     w11, w5, w5
 350:	04 00 3d    	bra       GE, 0x35a <expcanonical>
 352:	00 03 fd    	exch      w0, w6
 354:	81 03 fd    	exch      w1, w7
 356:	85 02 ea    	neg.w     w5, w5
 358:	8b 85 42    	add.w     w5, w11, w11

0000035a <expcanonical>:
 35a:	84 0f 72    	ior.w     w4, w4, [w15]
 35c:	02 00 3b    	bra       NN, 0x362
 35e:	60 00 10    	subr.w    w0, #0x0, w0
 360:	e0 80 18    	subbr.w   w1, #0x0, w1

00000362 <nonegate>:
 362:	60 11 b8    	mul.uu    w2, #0x0, w2
 364:	00 05 eb    	clr.w     w10
 366:	7a 28 e1    	cp.w      w5, #0x1a
 368:	0a 00 39    	bra       NC, 0x37e <aligniter>
 36a:	06 00 78    	mov.w     w6, w0
 36c:	c7 5d dd    	sl.w      w11, #0x7, w11
 36e:	f7 07 b2    	and.w     #0x7f, w7
 370:	87 80 75    	ior.w     w11, w7, w1
 372:	2d 00 37    	bra       0x3ce

00000374 <align>:
 374:	82 81 71    	ior.w     w3, w2, w3
 376:	0a 01 78    	mov.w     w10, w2
 378:	61 05 60    	and.w     w0, #0x1, w10
 37a:	81 80 d1    	asr.w     w1, w1
 37c:	00 80 d3    	rrc.w     w0, w0

0000037e <aligniter>:
 37e:	85 02 e9    	dec.w     w5, w5
 380:	f9 ff 3b    	bra       NN, 0x374 <align>

00000382 <aligned>:
 382:	06 04 40    	add.w     w0, w6, w8
 384:	87 84 48    	addc.w    w1, w7, w9
 386:	02 00 3b    	bra       NN, 0x38c
 388:	60 04 14    	subr.w    w8, #0x0, w8
 38a:	e0 84 1c    	subbr.w   w9, #0x0, w9

0000038c <normalizesum>:
 38c:	09 88 a3    	btst.z    w9, #0x8
 38e:	07 00 32    	bra       Z, 0x39e
 390:	8a 81 71    	ior.w     w3, w10, w3
 392:	82 81 71    	ior.w     w3, w2, w3
 394:	61 01 64    	and.w     w8, #0x1, w2
 396:	89 04 d1    	lsr.w     w9, w9
 398:	08 84 d3    	rrc.w     w8, w8
 39a:	8b 05 e8    	inc.w     w11, w11
 39c:	17 00 37    	bra       0x3cc

0000039e <checknormal>:
 39e:	09 78 a3    	btst.z    w9, #0x7
 3a0:	13 00 3a    	bra       NZ, 0x3c8

000003a2 <underflow>:
 3a2:	0b 00 e0    	cp0.w     w11
 3a4:	13 00 34    	bra       LE, 0x3cc
 3a6:	8b 05 e9    	dec.w     w11, w11
 3a8:	08 04 44    	add.w     w8, w8, w8
 3aa:	89 84 4c    	addc.w    w9, w9, w9
 3ac:	0a 44 74    	ior.b     w8, w10, w8
 3ae:	09 78 a3    	btst.z    w9, #0x7
 3b0:	0d 00 3a    	bra       NZ, 0x3cc

000003b2 <normalizeloop>:
 3b2:	0b 00 e0    	cp0.w     w11
 3b4:	07 00 34    	bra       LE, 0x3c4
 3b6:	8b 05 e9    	dec.w     w11, w11
 3b8:	08 04 44    	add.w     w8, w8, w8
 3ba:	89 84 4c    	addc.w    w9, w9, w9
 3bc:	01 00 3a    	bra       NZ, 0x3c0
 3be:	0b 00 20    	mov.w     #0x0, w11

000003c0 <normalizetest>:
 3c0:	09 78 a3    	btst.z    w9, #0x7
 3c2:	f7 ff 32    	bra       Z, 0x3b2

000003c4 <normalizeexit>:
 3c4:	00 01 eb    	clr.w     w2
 3c6:	02 00 37    	bra       0x3cc

000003c8 <discardguard>:
 3c8:	82 81 71    	ior.w     w3, w2, w3
 3ca:	0a 01 78    	mov.w     w10, w2

000003cc <round>:
 3cc:	62 01 07    	rcall     0x692 <__fpack>

000003ce <signoff>:
 3ce:	0c f0 a7    	btsc.w    w12, #0xf
 3d0:	01 f0 a0    	bset.w    w1, #0xf
 3d2:	58 01 37    	bra       0x684 <__fbopExit>

000003d4 <aisinfinite>:
 3d4:	64 20 e1    	cp.w      w4, #0x4
 3d6:	02 00 3a    	bra       NZ, 0x3dc
 3d8:	83 8f 6c    	xor.w     w9, w3, [w15]
 3da:	58 01 33    	bra       N, 0x68c <__fbopReturnNaN>

000003dc <return8>:
 3dc:	08 01 be    	mov.d     w8, w2

000003de <return2>:
 3de:	02 00 be    	mov.d     w2, w0
 3e0:	51 01 37    	bra       0x684 <__fbopExit>

000003e2 <_ceilf>:
 3e2:	00 01 eb    	clr.w     w2
 3e4:	7c 01 07    	rcall     0x6de
 3e6:	04 00 32    	bra       Z, 0x3f0 <exit>
 3e8:	02 00 20    	mov.w     #0x0, w2
 3ea:	03 f8 23    	mov.w     #0x3f80, w3
 3ec:	01 f0 a6    	btss.w    w1, #0xf
 3ee:	9c ff 07    	rcall     0x328

000003f0 <exit>:
 3f0:	00 00 06    	return    

000003f2 <_floorf>:
 3f2:	00 01 eb    	clr.w     w2
 3f4:	74 01 07    	rcall     0x6de
 3f6:	04 00 32    	bra       Z, 0x400
 3f8:	02 00 20    	mov.w     #0x0, w2
 3fa:	03 f8 23    	mov.w     #0x3f80, w3
 3fc:	01 f0 a7    	btsc.w    w1, #0xf
 3fe:	93 ff 07    	rcall     0x326

00000400 <exit>:
 400:	00 00 06    	return    

00000402 <___gesf2>:
 402:	f4 ff 2f    	mov.w     #0xffff, w4
 404:	93 01 37    	bra       0x72c <__fcompare>

00000406 <___floatsisf>:
 406:	88 9f be    	mov.d     w8, [w15++]
 408:	8a 9f be    	mov.d     w10, [w15++]
 40a:	01 05 78    	mov.w     w1, w10
 40c:	01 00 e0    	cp0.w     w1
 40e:	04 00 35    	bra       LT, 0x418
 410:	08 00 3c    	bra       GT, 0x422
 412:	00 00 e0    	cp0.w     w0
 414:	20 00 32    	bra       Z, 0x456
 416:	05 00 37    	bra       0x422

00000418 <negative>:
 418:	60 00 10    	subr.w    w0, #0x0, w0
 41a:	e0 80 18    	subbr.w   w1, #0x0, w1
 41c:	02 00 3b    	bra       NN, 0x422
 41e:	01 f0 2c    	mov.w     #0xcf00, w1
 420:	1a 00 37    	bra       0x456

00000422 <notspecial>:
 422:	00 04 be    	mov.d     w0, w8
 424:	60 11 b8    	mul.uu    w2, #0x0, w2
 426:	6b 09 20    	mov.w     #0x96, w11
 428:	09 82 cf    	ff1l      w9, w4
 42a:	02 00 39    	bra       NC, 0x430
 42c:	08 82 cf    	ff1l      w8, w4
 42e:	04 41 b0    	add.b     #0x10, w4

00000430 <fixshift>:
 430:	69 42 52    	sub.b     w4, #0x9, w4
 432:	0e 00 32    	bra       Z, 0x450
 434:	08 00 3b    	bra       NN, 0x446

00000436 <shiftright>:
 436:	82 81 71    	ior.w     w3, w2, w3
 438:	61 01 64    	and.w     w8, #0x1, w2
 43a:	89 04 d1    	lsr.w     w9, w9
 43c:	08 84 d3    	rrc.w     w8, w8
 43e:	8b 05 e8    	inc.w     w11, w11
 440:	04 42 e8    	inc.b     w4, w4
 442:	f9 ff 3a    	bra       NZ, 0x436
 444:	05 00 37    	bra       0x450

00000446 <shiftleft>:
 446:	08 04 44    	add.w     w8, w8, w8
 448:	89 84 4c    	addc.w    w9, w9, w9
 44a:	8b 05 e9    	dec.w     w11, w11
 44c:	04 42 e9    	dec.b     w4, w4
 44e:	fb ff 3a    	bra       NZ, 0x446

00000450 <round>:
 450:	20 01 07    	rcall     0x692 <__fpack>
 452:	0a f0 a7    	btsc.w    w10, #0xf
 454:	01 f0 a0    	bset.w    w1, #0xf

00000456 <return0>:
 456:	4f 05 be    	mov.d     [--w15], w10
 458:	4f 04 be    	mov.d     [--w15], w8
 45a:	00 00 06    	return    

0000045c <___divsf3>:
 45c:	88 9f be    	mov.d     w8, [w15++]
 45e:	8a 9f be    	mov.d     w10, [w15++]
 460:	8c 1f 78    	mov.w     w12, [w15++]
 462:	ff 00 07    	rcall     0x662 <__funpack2>
 464:	06 01 33    	bra       N, 0x672 <__fPropagateNaN>
 466:	03 86 6c    	xor.w     w9, w3, w12
 468:	64 50 e1    	cp.w      w10, #0x4
 46a:	2e 00 32    	bra       Z, 0x4c8 <aisinfinite>
 46c:	64 20 e1    	cp.w      w4, #0x4
 46e:	33 00 32    	bra       Z, 0x4d6 <returnZero>
 470:	61 50 e1    	cp.w      w10, #0x1
 472:	2f 00 32    	bra       Z, 0x4d2 <aiszero>
 474:	61 20 e1    	cp.w      w4, #0x1
 476:	31 00 32    	bra       Z, 0x4da <returnInf>

00000478 <finitenonzero>:
 478:	85 85 55    	sub.w     w11, w5, w11
 47a:	eb 07 b0    	add.w     #0x7e, w11
 47c:	09 00 20    	mov.w     #0x0, w9
 47e:	08 04 20    	mov.w     #0x40, w8
 480:	05 00 37    	bra       0x48c <diventry>

00000482 <divnext>:
 482:	08 04 44    	add.w     w8, w8, w8
 484:	89 84 4c    	addc.w    w9, w9, w9
 486:	0a 00 31    	bra       C, 0x49c <divdone>

00000488 <divloop>:
 488:	06 03 43    	add.w     w6, w6, w6
 48a:	87 83 4b    	addc.w    w7, w7, w7

0000048c <diventry>:
 48c:	00 01 53    	sub.w     w6, w0, w2
 48e:	81 81 5b    	subb.w    w7, w1, w3
 490:	f8 ff 33    	bra       N, 0x482 <divnext>
 492:	02 03 be    	mov.d     w2, w6
 494:	08 00 a0    	bset.w    w8, #0x0
 496:	08 04 44    	add.w     w8, w8, w8
 498:	89 84 4c    	addc.w    w9, w9, w9
 49a:	f6 ff 39    	bra       NC, 0x488 <divloop>

0000049c <divdone>:
 49c:	c6 39 dd    	sl.w      w7, #0x6, w3
 49e:	83 01 73    	ior.w     w6, w3, w3
 4a0:	01 00 32    	bra       Z, 0x4a4 <stickyok>
 4a2:	13 00 20    	mov.w     #0x1, w3

000004a4 <stickyok>:
 4a4:	89 04 d1    	lsr.w     w9, w9
 4a6:	08 84 d3    	rrc.w     w8, w8
 4a8:	09 98 a3    	btst.z    w9, #0x9
 4aa:	05 00 32    	bra       Z, 0x4b6 <guardused>
 4ac:	08 00 a7    	btsc.w    w8, #0x0
 4ae:	03 00 a0    	bset.w    w3, #0x0
 4b0:	89 04 d1    	lsr.w     w9, w9
 4b2:	08 84 d3    	rrc.w     w8, w8
 4b4:	8b 05 e8    	inc.w     w11, w11

000004b6 <guardused>:
 4b6:	89 04 d1    	lsr.w     w9, w9
 4b8:	08 84 d3    	rrc.w     w8, w8
 4ba:	00 01 eb    	clr.w     w2
 4bc:	02 81 d2    	rlc.w     w2, w2
 4be:	e9 00 07    	rcall     0x692 <__fpack>

000004c0 <return0>:
 4c0:	01 f0 a1    	bclr.w    w1, #0xf
 4c2:	0c f0 a7    	btsc.w    w12, #0xf
 4c4:	01 f0 a0    	bset.w    w1, #0xf
 4c6:	de 00 37    	bra       0x684 <__fbopExit>

000004c8 <aisinfinite>:
 4c8:	64 20 e1    	cp.w      w4, #0x4
 4ca:	e0 00 32    	bra       Z, 0x68c <__fbopReturnNaN>

000004cc <return8>:
 4cc:	08 01 be    	mov.d     w8, w2

000004ce <return2>:
 4ce:	02 00 be    	mov.d     w2, w0
 4d0:	f7 ff 37    	bra       0x4c0 <return0>

000004d2 <aiszero>:
 4d2:	61 20 e1    	cp.w      w4, #0x1
 4d4:	db 00 32    	bra       Z, 0x68c <__fbopReturnNaN>

000004d6 <returnZero>:
 4d6:	60 00 b8    	mul.uu    w0, #0x0, w0
 4d8:	f3 ff 37    	bra       0x4c0 <return0>

000004da <returnInf>:
 4da:	00 00 20    	mov.w     #0x0, w0
 4dc:	01 f8 27    	mov.w     #0x7f80, w1
 4de:	f0 ff 37    	bra       0x4c0 <return0>

000004e0 <___modsi3>:
 4e0:	81 1f 78    	mov.w     w1, [w15++]
 4e2:	01 00 e0    	cp0.w     w1
 4e4:	02 00 3d    	bra       GE, 0x4ea <modtestb>
 4e6:	60 00 10    	subr.w    w0, #0x0, w0
 4e8:	e0 80 18    	subbr.w   w1, #0x0, w1

000004ea <modtestb>:
 4ea:	03 00 e0    	cp0.w     w3
 4ec:	02 00 3d    	bra       GE, 0x4f2 <calcrem>
 4ee:	60 01 11    	subr.w    w2, #0x0, w2
 4f0:	e0 81 19    	subbr.w   w3, #0x0, w3

000004f2 <calcrem>:
 4f2:	37 01 07    	rcall     0x762 <___umodsi3>
 4f4:	4f 00 e0    	cp0.w     [--w15]
 4f6:	02 00 3b    	bra       NN, 0x4fc <exitr>
 4f8:	60 00 10    	subr.w    w0, #0x0, w0
 4fa:	e0 80 18    	subbr.w   w1, #0x0, w1

000004fc <exitr>:
 4fc:	00 00 06    	return    

000004fe <_expf>:
 4fe:	88 9f be    	mov.d     w8, [w15++]
 500:	8a 9f be    	mov.d     w10, [w15++]
 502:	8c 9f be    	mov.d     w12, [w15++]
 504:	00 04 be    	mov.d     w0, w8
 506:	30 01 07    	rcall     0x768 <__funpack>
 508:	08 00 be    	mov.d     w8, w0
 50a:	64 20 e1    	cp.w      w4, #0x4
 50c:	48 00 3e    	bra       GTU, 0x59e <return0>
 50e:	55 00 32    	bra       Z, 0x5ba <xIsInf>
 510:	72 21 27    	mov.w     #0x7217, w2
 512:	13 2b 24    	mov.w     #0x42b1, w3
 514:	76 ff 07    	rcall     0x402
 516:	47 00 3c    	bra       GT, 0x5a6 <overflow>
 518:	08 00 be    	mov.d     w8, w0
 51a:	c2 ec 28    	mov.w     #0x8ecc, w2
 51c:	e3 2c 2c    	mov.w     #0xc2ce, w3
 51e:	39 01 07    	rcall     0x792 <___eqsf2>
 520:	47 00 35    	bra       LT, 0x5b0 <underflow>
 522:	08 00 be    	mov.d     w8, w0
 524:	01 f0 a1    	bclr.w    w1, #0xf
 526:	02 00 20    	mov.w     #0x0, w2
 528:	03 38 23    	mov.w     #0x3380, w3
 52a:	33 01 07    	rcall     0x792 <___eqsf2>
 52c:	43 00 35    	bra       LT, 0x5b4 <tinyarg>
 52e:	08 00 be    	mov.d     w8, w0
 530:	b2 a3 2a    	mov.w     #0xaa3b, w2
 532:	83 fb 23    	mov.w     #0x3fb8, w3
 534:	c4 fe 07    	rcall     0x2be <___mulsf3>
 536:	02 00 20    	mov.w     #0x0, w2
 538:	03 f0 23    	mov.w     #0x3f00, w3
 53a:	01 f0 a7    	btsc.w    w1, #0xf
 53c:	03 f0 a0    	bset.w    w3, #0xf
 53e:	f4 fe 07    	rcall     0x328
 540:	5f 00 07    	rcall     0x600 <___fixsfsi>
 542:	00 05 be    	mov.d     w0, w10
 544:	60 ff 07    	rcall     0x406
 546:	01 f0 a2    	btg.w     w1, #0xf
 548:	00 06 be    	mov.d     w0, w12
 54a:	02 00 28    	mov.w     #0x8000, w2
 54c:	13 f3 23    	mov.w     #0x3f31, w3
 54e:	b7 fe 07    	rcall     0x2be <___mulsf3>
 550:	08 01 be    	mov.d     w8, w2
 552:	ea fe 07    	rcall     0x328
 554:	80 9f be    	mov.d     w0, [w15++]
 556:	0c 00 be    	mov.d     w12, w0
 558:	32 08 28    	mov.w     #0x8083, w2
 55a:	e3 95 2b    	mov.w     #0xb95e, w3
 55c:	b0 fe 07    	rcall     0x2be <___mulsf3>
 55e:	4f 01 be    	mov.d     [--w15], w2
 560:	e3 fe 07    	rcall     0x328
 562:	00 06 be    	mov.d     w0, w12
 564:	00 01 be    	mov.d     w0, w2
 566:	ab fe 07    	rcall     0x2be <___mulsf3>
 568:	80 9f be    	mov.d     w0, [w15++]
 56a:	42 41 25    	mov.w     #0x5414, w2
 56c:	83 b8 23    	mov.w     #0x3b88, w3
 56e:	a7 fe 07    	rcall     0x2be <___mulsf3>
 570:	02 00 20    	mov.w     #0x0, w2
 572:	03 e8 23    	mov.w     #0x3e80, w3
 574:	d9 fe 07    	rcall     0x328
 576:	0c 01 be    	mov.d     w12, w2
 578:	a2 fe 07    	rcall     0x2be <___mulsf3>
 57a:	00 06 be    	mov.d     w0, w12
 57c:	4f 00 be    	mov.d     [--w15], w0
 57e:	f2 f9 2b    	mov.w     #0xbf9f, w2
 580:	c3 d4 23    	mov.w     #0x3d4c, w3
 582:	9d fe 07    	rcall     0x2be <___mulsf3>
 584:	02 00 20    	mov.w     #0x0, w2
 586:	03 f0 23    	mov.w     #0x3f00, w3
 588:	cf fe 07    	rcall     0x328
 58a:	0c 01 be    	mov.d     w12, w2
 58c:	cc fe 07    	rcall     0x326
 58e:	00 01 be    	mov.d     w0, w2
 590:	0c 00 be    	mov.d     w12, w0
 592:	64 ff 07    	rcall     0x45c
 594:	02 00 20    	mov.w     #0x0, w2
 596:	03 f0 23    	mov.w     #0x3f00, w3
 598:	c7 fe 07    	rcall     0x328
 59a:	61 01 45    	add.w     w10, #0x1, w2
 59c:	fc 00 07    	rcall     0x796 <_ldexpf>

0000059e <return0>:
 59e:	4f 06 be    	mov.d     [--w15], w12
 5a0:	4f 05 be    	mov.d     [--w15], w10
 5a2:	4f 04 be    	mov.d     [--w15], w8
 5a4:	00 00 06    	return    

000005a6 <overflow>:
 5a6:	01 f8 27    	mov.w     #0x7f80, w1
 5a8:	00 00 20    	mov.w     #0x0, w0

000005aa <rangeerr>:
 5aa:	22 02 20    	mov.w     #0x22, w2
 5ac:	02 5a 88    	mov.w     w2, 0xb40
 5ae:	f7 ff 37    	bra       0x59e <return0>

000005b0 <underflow>:
 5b0:	60 00 b8    	mul.uu    w0, #0x0, w0
 5b2:	fb ff 37    	bra       0x5aa <rangeerr>

000005b4 <tinyarg>:
 5b4:	01 f8 23    	mov.w     #0x3f80, w1
 5b6:	00 00 20    	mov.w     #0x0, w0
 5b8:	f2 ff 37    	bra       0x59e <return0>

000005ba <xIsInf>:
 5ba:	09 f8 a3    	btst.z    w9, #0xf
 5bc:	f0 ff 32    	bra       Z, 0x59e <return0>
 5be:	60 00 b8    	mul.uu    w0, #0x0, w0
 5c0:	ee ff 37    	bra       0x59e <return0>

000005c2 <_cosf>:
 5c2:	00 81 eb    	setm.w    w2
 5c4:	0a 01 37    	bra       0x7da <__sincosf>

000005c6 <_sinf>:
 5c6:	00 01 eb    	clr.w     w2
 5c8:	08 01 37    	bra       0x7da <__sincosf>

000005ca <___fixunssfsi>:
 5ca:	00 01 be    	mov.d     w0, w2
 5cc:	cd 00 07    	rcall     0x768 <__funpack>
 5ce:	04 70 a7    	btsc.w    w4, #0x7
 5d0:	03 f0 a1    	bclr.w    w3, #0xf
 5d2:	03 f8 a3    	btst.z    w3, #0xf
 5d4:	13 00 3a    	bra       NZ, 0x5fc <returnzero>
 5d6:	65 09 b1    	sub.w     #0x96, w5
 5d8:	10 00 32    	bra       Z, 0x5fa <exit>
 5da:	09 00 35    	bra       LT, 0x5ee <shiftright>
 5dc:	69 28 e1    	cp.w      w5, #0x9
 5de:	02 00 35    	bra       LT, 0x5e4 <shiftleft>
 5e0:	01 00 28    	mov.w     #0x8000, w1
 5e2:	00 00 05    	retlw.w   #0x0, w0

000005e4 <shiftleft>:
 5e4:	00 00 40    	add.w     w0, w0, w0
 5e6:	81 80 48    	addc.w    w1, w1, w1
 5e8:	85 02 e9    	dec.w     w5, w5
 5ea:	fc ff 3a    	bra       NZ, 0x5e4 <shiftleft>
 5ec:	00 00 06    	return    

000005ee <shiftright>:
 5ee:	f8 8f 42    	add.w     w5, #0x18, [w15]
 5f0:	05 00 35    	bra       LT, 0x5fc <returnzero>

000005f2 <shiftrightloop>:
 5f2:	81 00 d1    	lsr.w     w1, w1
 5f4:	00 80 d3    	rrc.w     w0, w0
 5f6:	85 02 e8    	inc.w     w5, w5
 5f8:	fc ff 3a    	bra       NZ, 0x5f2 <shiftrightloop>

000005fa <exit>:
 5fa:	00 00 06    	return    

000005fc <returnzero>:
 5fc:	80 00 eb    	clr.w     w1
 5fe:	00 00 05    	retlw.w   #0x0, w0

00000600 <___fixsfsi>:
 600:	00 01 be    	mov.d     w0, w2
 602:	b2 00 07    	rcall     0x768 <__funpack>
 604:	04 70 a7    	btsc.w    w4, #0x7
 606:	03 f0 a1    	bclr.w    w3, #0xf
 608:	65 09 b1    	sub.w     #0x96, w5
 60a:	16 00 32    	bra       Z, 0x638 <setsign>
 60c:	0d 00 35    	bra       LT, 0x628 <shiftright>
 60e:	68 28 e1    	cp.w      w5, #0x8
 610:	06 00 35    	bra       LT, 0x61e <shiftleft>
 612:	f0 ff 2f    	mov.w     #0xffff, w0
 614:	f1 ff 27    	mov.w     #0x7fff, w1
 616:	03 00 e0    	cp0.w     w3
 618:	13 00 3b    	bra       NN, 0x640 <exit>
 61a:	01 00 28    	mov.w     #0x8000, w1
 61c:	00 00 05    	retlw.w   #0x0, w0

0000061e <shiftleft>:
 61e:	00 00 40    	add.w     w0, w0, w0
 620:	81 80 48    	addc.w    w1, w1, w1
 622:	85 02 e9    	dec.w     w5, w5
 624:	fc ff 3a    	bra       NZ, 0x61e <shiftleft>
 626:	08 00 37    	bra       0x638 <setsign>

00000628 <shiftright>:
 628:	f8 8f 42    	add.w     w5, #0x18, [w15]
 62a:	02 00 3c    	bra       GT, 0x630 <shiftrightloop>
 62c:	80 00 eb    	clr.w     w1
 62e:	00 00 05    	retlw.w   #0x0, w0

00000630 <shiftrightloop>:
 630:	81 00 d1    	lsr.w     w1, w1
 632:	00 80 d3    	rrc.w     w0, w0
 634:	85 02 e8    	inc.w     w5, w5
 636:	fc ff 3a    	bra       NZ, 0x630 <shiftrightloop>

00000638 <setsign>:
 638:	03 00 e0    	cp0.w     w3
 63a:	02 00 3b    	bra       NN, 0x640 <exit>
 63c:	60 00 10    	subr.w    w0, #0x0, w0
 63e:	e0 80 18    	subbr.w   w1, #0x0, w1

00000640 <exit>:
 640:	00 00 06    	return    

00000642 <___udivsi3>:
 642:	60 22 b8    	mul.uu    w4, #0x0, w4
 644:	06 02 20    	mov.w     #0x20, w6

00000646 <nextbit>:
 646:	00 00 d0    	sl.w      w0, w0
 648:	81 80 d2    	rlc.w     w1, w1
 64a:	04 82 d2    	rlc.w     w4, w4
 64c:	85 82 d2    	rlc.w     w5, w5
 64e:	00 00 a0    	bset.w    w0, #0x0
 650:	02 02 52    	sub.w     w4, w2, w4
 652:	83 82 5a    	subb.w    w5, w3, w5
 654:	03 00 3b    	bra       NN, 0x65c <iterate>
 656:	02 02 42    	add.w     w4, w2, w4
 658:	83 82 4a    	addc.w    w5, w3, w5
 65a:	00 00 a1    	bclr.w    w0, #0x0

0000065c <iterate>:
 65c:	06 03 e9    	dec.w     w6, w6
 65e:	f3 ff 3a    	bra       NZ, 0x646 <nextbit>
 660:	00 00 06    	return    

00000662 <__funpack2>:
 662:	00 04 be    	mov.d     w0, w8
 664:	81 00 07    	rcall     0x768 <__funpack>
 666:	00 03 be    	mov.d     w0, w6
 668:	04 05 be    	mov.d     w4, w10
 66a:	02 00 be    	mov.d     w2, w0
 66c:	7d 00 07    	rcall     0x768 <__funpack>
 66e:	84 4f 75    	ior.b     w10, w4, [w15]
 670:	00 00 06    	return    

00000672 <__fPropagateNaN>:
 672:	02 00 be    	mov.d     w2, w0
 674:	64 50 e1    	cp.w      w10, #0x4
 676:	05 00 36    	bra       LEU, 0x682 <return0>
 678:	64 20 e1    	cp.w      w4, #0x4
 67a:	02 00 36    	bra       LEU, 0x680 <return8>
 67c:	09 68 a3    	btst.z    w9, #0x6
 67e:	01 00 3a    	bra       NZ, 0x682 <return0>

00000680 <return8>:
 680:	08 00 be    	mov.d     w8, w0

00000682 <return0>:
 682:	01 60 a0    	bset.w    w1, #0x6

00000684 <__fbopExit>:
 684:	4f 06 78    	mov.w     [--w15], w12
 686:	4f 05 be    	mov.d     [--w15], w10
 688:	4f 04 be    	mov.d     [--w15], w8
 68a:	00 00 06    	return    

0000068c <__fbopReturnNaN>:
 68c:	f0 ff 2f    	mov.w     #0xffff, w0
 68e:	f1 ff 27    	mov.w     #0x7fff, w1
 690:	f9 ff 37    	bra       0x684 <__fbopExit>

00000692 <__fpack>:
 692:	81 00 20    	mov.w     #0x8, w1
 694:	61 80 55    	sub.w     w11, #0x1, w0
 696:	0b 00 3d    	bra       GE, 0x6ae <notsubnormal>
 698:	0b 00 20    	mov.w     #0x0, w11
 69a:	61 fe 2f    	mov.w     #0xffe6, w1
 69c:	01 00 e1    	cp.w      w0, w1
 69e:	1d 00 34    	bra       LE, 0x6da <zerosig>

000006a0 <subnormal>:
 6a0:	82 81 71    	ior.w     w3, w2, w3
 6a2:	61 01 64    	and.w     w8, #0x1, w2
 6a4:	89 04 d1    	lsr.w     w9, w9
 6a6:	08 84 d3    	rrc.w     w8, w8
 6a8:	00 00 e8    	inc.w     w0, w0
 6aa:	fa ff 3a    	bra       NZ, 0x6a0 <subnormal>
 6ac:	71 00 20    	mov.w     #0x7, w1

000006ae <notsubnormal>:
 6ae:	61 00 64    	and.w     w8, #0x1, w0
 6b0:	03 00 70    	ior.w     w0, w3, w0
 6b2:	02 00 60    	and.w     w0, w2, w0
 6b4:	09 00 32    	bra       Z, 0x6c8 <packupandgo>
 6b6:	61 04 44    	add.w     w8, #0x1, w8
 6b8:	e0 84 4c    	addc.w    w9, #0x0, w9
 6ba:	09 88 a5    	btst.z    w9, w1
 6bc:	05 00 32    	bra       Z, 0x6c8 <packupandgo>
 6be:	8b 05 e8    	inc.w     w11, w11
 6c0:	68 08 e1    	cp.w      w1, #0x8
 6c2:	02 00 3a    	bra       NZ, 0x6c8 <packupandgo>
 6c4:	89 04 d1    	lsr.w     w9, w9
 6c6:	08 84 d3    	rrc.w     w8, w8

000006c8 <packupandgo>:
 6c8:	f2 0f 20    	mov.w     #0xff, w2
 6ca:	02 58 e1    	cp.w      w11, w2
 6cc:	05 00 3d    	bra       GE, 0x6d8 <overflow>
 6ce:	c7 5d dd    	sl.w      w11, #0x7, w11
 6d0:	f9 07 b2    	and.w     #0x7f, w9
 6d2:	89 80 75    	ior.w     w11, w9, w1
 6d4:	08 00 78    	mov.w     w8, w0
 6d6:	00 00 06    	return    

000006d8 <overflow>:
 6d8:	0b f8 27    	mov.w     #0x7f80, w11

000006da <zerosig>:
 6da:	8b 00 78    	mov.w     w11, w1
 6dc:	00 00 05    	retlw.w   #0x0, w0

000006de <__fchop>:
 6de:	88 9f be    	mov.d     w8, [w15++]
 6e0:	8a 9f be    	mov.d     w10, [w15++]
 6e2:	00 03 be    	mov.d     w0, w6
 6e4:	41 00 07    	rcall     0x768 <__funpack>
 6e6:	85 05 78    	mov.w     w5, w11
 6e8:	82 81 52    	sub.w     w5, w2, w3
 6ea:	02 00 20    	mov.w     #0x0, w2
 6ec:	62 20 e1    	cp.w      w4, #0x2
 6ee:	04 00 3a    	bra       NZ, 0x6f8 <return6>
 6f0:	f3 07 b1    	sub.w     #0x7f, w3
 6f2:	04 00 35    	bra       LT, 0x6fc <result0>
 6f4:	77 18 e1    	cp.w      w3, #0x17
 6f6:	04 00 35    	bra       LT, 0x700 <chop>

000006f8 <return6>:
 6f8:	06 00 be    	mov.d     w6, w0
 6fa:	14 00 37    	bra       0x724 <return0>

000006fc <result0>:
 6fc:	60 00 b8    	mul.uu    w0, #0x0, w0
 6fe:	0f 00 37    	bra       0x71e <signit>

00000700 <chop>:
 700:	f5 0f 20    	mov.w     #0xff, w5
 702:	fa ff 2f    	mov.w     #0xffff, w10

00000704 <shiftloop>:
 704:	85 02 d1    	lsr.w     w5, w5
 706:	0a 85 d3    	rrc.w     w10, w10
 708:	83 01 e9    	dec.w     w3, w3
 70a:	fc ff 3b    	bra       NN, 0x704 <shiftloop>
 70c:	81 84 62    	and.w     w5, w1, w9
 70e:	00 04 65    	and.w     w10, w0, w8
 710:	89 0f 74    	ior.w     w8, w9, [w15]
 712:	f2 ff 32    	bra       Z, 0x6f8 <return6>
 714:	85 82 ea    	com.w     w5, w5
 716:	0a 85 ea    	com.w     w10, w10
 718:	81 84 62    	and.w     w5, w1, w9
 71a:	00 04 65    	and.w     w10, w0, w8
 71c:	ba ff 07    	rcall     0x692 <__fpack>

0000071e <signit>:
 71e:	07 f0 a7    	btsc.w    w7, #0xf
 720:	01 f0 a0    	bset.w    w1, #0xf
 722:	00 81 eb    	setm.w    w2

00000724 <return0>:
 724:	02 00 e0    	cp0.w     w2
 726:	4f 05 be    	mov.d     [--w15], w10
 728:	4f 04 be    	mov.d     [--w15], w8
 72a:	00 00 06    	return    

0000072c <__fcompare>:
 72c:	88 9f be    	mov.d     w8, [w15++]
 72e:	8a 9f be    	mov.d     w10, [w15++]
 730:	84 1f 78    	mov.w     w4, [w15++]
 732:	97 ff 07    	rcall     0x662 <__funpack2>
 734:	4f 00 78    	mov.w     [--w15], w0
 736:	11 00 33    	bra       N, 0x75a <exit>
 738:	f0 ff 2f    	mov.w     #0xffff, w0
 73a:	83 8f 6c    	xor.w     w9, w3, [w15]
 73c:	06 00 3b    	bra       NN, 0x74a <comparemag>
 73e:	04 05 65    	and.w     w10, w4, w10
 740:	0a 00 a7    	btsc.w    w10, #0x0
 742:	08 00 37    	bra       0x754 <returnEqual>
 744:	09 f0 a6    	btss.w    w9, #0xf
 746:	10 00 20    	mov.w     #0x1, w0
 748:	08 00 37    	bra       0x75a <exit>

0000074a <comparemag>:
 74a:	82 0f 54    	sub.w     w8, w2, [w15]
 74c:	83 8f 5c    	subb.w    w9, w3, [w15]
 74e:	03 00 39    	bra       NC, 0x756 <adjust>
 750:	10 00 20    	mov.w     #0x1, w0
 752:	01 00 3e    	bra       GTU, 0x756 <adjust>

00000754 <returnEqual>:
 754:	00 00 20    	mov.w     #0x0, w0

00000756 <adjust>:
 756:	09 f0 a7    	btsc.w    w9, #0xf
 758:	00 00 ea    	neg.w     w0, w0

0000075a <exit>:
 75a:	4f 05 be    	mov.d     [--w15], w10
 75c:	4f 04 be    	mov.d     [--w15], w8
 75e:	00 00 e0    	cp0.w     w0
 760:	00 00 06    	return    

00000762 <___umodsi3>:
 762:	6f ff 07    	rcall     0x642 <___udivsi3>
 764:	04 00 be    	mov.d     w4, w0
 766:	00 00 06    	return    

00000768 <__funpack>:
 768:	c7 0a de    	lsr.w     w1, #0x7, w5
 76a:	f1 07 b2    	and.w     #0x7f, w1
 76c:	f5 0f b2    	and.w     #0xff, w5
 76e:	08 00 32    	bra       Z, 0x780 <zeroorsub>
 770:	e1 cf 42    	add.b     w5, #0x1, [w15]
 772:	02 00 32    	bra       Z, 0x778 <nanorinf>

00000774 <finitereturn>:
 774:	01 70 a0    	bset.w    w1, #0x7
 776:	24 00 05    	retlw.w   #0x2, w4

00000778 <nanorinf>:
 778:	81 0f 70    	ior.w     w0, w1, [w15]
 77a:	01 00 32    	bra       Z, 0x77e <infinite>
 77c:	04 08 05    	retlw.w   #0x80, w4

0000077e <infinite>:
 77e:	44 00 05    	retlw.w   #0x4, w4

00000780 <zeroorsub>:
 780:	81 0f 70    	ior.w     w0, w1, [w15]
 782:	02 00 3a    	bra       NZ, 0x788 <subnormal>
 784:	14 00 05    	retlw.w   #0x1, w4

00000786 <normalize>:
 786:	85 02 e9    	dec.w     w5, w5

00000788 <subnormal>:
 788:	00 00 40    	add.w     w0, w0, w0
 78a:	81 c0 48    	addc.b    w1, w1, w1
 78c:	fc ff 3b    	bra       NN, 0x786 <normalize>
 78e:	01 70 a0    	bset.w    w1, #0x7
 790:	24 00 05    	retlw.w   #0x2, w4

00000792 <___eqsf2>:
 792:	14 00 20    	mov.w     #0x1, w4
 794:	cb ff 37    	bra       0x72c <__fcompare>

00000796 <_ldexpf>:
 796:	00 03 be    	mov.d     w0, w6
 798:	e7 ff 07    	rcall     0x768 <__funpack>
 79a:	62 20 e1    	cp.w      w4, #0x2
 79c:	02 00 32    	bra       Z, 0x7a2 <finite>
 79e:	06 00 be    	mov.d     w6, w0
 7a0:	00 00 06    	return    

000007a2 <finite>:
 7a2:	85 02 41    	add.w     w2, w5, w5
 7a4:	e3 0f 20    	mov.w     #0xfe, w3
 7a6:	03 28 e1    	cp.w      w5, w3
 7a8:	05 00 3c    	bra       GT, 0x7b4 <overflow>
 7aa:	a3 fe 2f    	mov.w     #0xffea, w3
 7ac:	03 28 e1    	cp.w      w5, w3
 7ae:	07 00 3d    	bra       GE, 0x7be <nounderflow>
 7b0:	05 00 20    	mov.w     #0x0, w5
 7b2:	01 00 37    	bra       0x7b6 <packupandgozero>

000007b4 <overflow>:
 7b4:	f5 0f 20    	mov.w     #0xff, w5

000007b6 <packupandgozero>:
 7b6:	20 02 20    	mov.w     #0x22, w0
 7b8:	00 5a 88    	mov.w     w0, 0xb40
 7ba:	60 00 b8    	mul.uu    w0, #0x0, w0
 7bc:	08 00 37    	bra       0x7ce <packupandgo>

000007be <nounderflow>:
 7be:	13 00 20    	mov.w     #0x1, w3
 7c0:	83 81 52    	sub.w     w5, w3, w3
 7c2:	05 00 3d    	bra       GE, 0x7ce <packupandgo>

000007c4 <reduce>:
 7c4:	81 00 d1    	lsr.w     w1, w1
 7c6:	00 80 d3    	rrc.w     w0, w0
 7c8:	83 01 e8    	inc.w     w3, w3
 7ca:	fc ff 3a    	bra       NZ, 0x7c4 <reduce>
 7cc:	05 00 20    	mov.w     #0x0, w5

000007ce <packupandgo>:
 7ce:	c7 2a dd    	sl.w      w5, #0x7, w5
 7d0:	f1 07 b2    	and.w     #0x7f, w1
 7d2:	85 80 70    	ior.w     w1, w5, w1
 7d4:	07 f0 a7    	btsc.w    w7, #0xf
 7d6:	01 f0 a0    	bset.w    w1, #0xf
 7d8:	00 00 06    	return    

000007da <__sincosf>:
 7da:	88 9f be    	mov.d     w8, [w15++]
 7dc:	8a 9f be    	mov.d     w10, [w15++]
 7de:	8c 9f be    	mov.d     w12, [w15++]
 7e0:	82 05 78    	mov.w     w2, w11
 7e2:	00 04 be    	mov.d     w0, w8
 7e4:	c1 ff 07    	rcall     0x768 <__funpack>
 7e6:	08 00 be    	mov.d     w8, w0
 7e8:	64 20 e1    	cp.w      w4, #0x4
 7ea:	07 00 39    	bra       NC, 0x7fa <finite>
 7ec:	02 00 3a    	bra       NZ, 0x7f2 <isNaN>
 7ee:	f1 ff 27    	mov.w     #0x7fff, w1
 7f0:	f0 ff 2f    	mov.w     #0xffff, w0

000007f2 <isNaN>:
 7f2:	01 60 a0    	bset.w    w1, #0x6

000007f4 <domainerr>:
 7f4:	12 02 20    	mov.w     #0x21, w2
 7f6:	02 5a 88    	mov.w     w2, 0xb40
 7f8:	55 00 37    	bra       0x8a4 <return0>

000007fa <finite>:
 7fa:	61 20 e1    	cp.w      w4, #0x1
 7fc:	03 00 3a    	bra       NZ, 0x804 <nonzero>
 7fe:	0b 00 a7    	btsc.w    w11, #0x0
 800:	01 f8 23    	mov.w     #0x3f80, w1
 802:	50 00 37    	bra       0x8a4 <return0>

00000804 <nonzero>:
 804:	01 f0 a1    	bclr.w    w1, #0xf
 806:	02 00 21    	mov.w     #0x1000, w2
 808:	93 64 24    	mov.w     #0x4649, w3
 80a:	c3 ff 07    	rcall     0x792 <___eqsf2>
 80c:	08 00 be    	mov.d     w8, w0
 80e:	04 00 35    	bra       LT, 0x818 <inrange>
 810:	b2 fd 20    	mov.w     #0xfdb, w2
 812:	93 0c 24    	mov.w     #0x40c9, w3
 814:	4b 00 07    	rcall     0x8ac <_fmodf>
 816:	00 04 be    	mov.d     w0, w8

00000818 <inrange>:
 818:	00 05 eb    	clr.w     w10
 81a:	0b 00 a6    	btss.w    w11, #0x0
 81c:	4f 0d de    	lsr.w     w1, #0xf, w10
 81e:	01 f0 a1    	bclr.w    w1, #0xf
 820:	00 04 be    	mov.d     w0, w8
 822:	32 98 2f    	mov.w     #0xf983, w2
 824:	23 ea 23    	mov.w     #0x3ea2, w3
 826:	4b fd 07    	rcall     0x2be <___mulsf3>
 828:	00 01 eb    	clr.w     w2
 82a:	03 f0 23    	mov.w     #0x3f00, w3
 82c:	0b 00 a7    	btsc.w    w11, #0x0
 82e:	03 f8 23    	mov.w     #0x3f80, w3
 830:	7b fd 07    	rcall     0x328
 832:	e6 fe 07    	rcall     0x600 <___fixsfsi>
 834:	00 00 a7    	btsc.w    w0, #0x0
 836:	0a 00 a2    	btg.w     w10, #0x0
 838:	e6 fd 07    	rcall     0x406
 83a:	0b 00 e0    	cp0.w     w11
 83c:	03 00 32    	bra       Z, 0x844 <common>
 83e:	02 00 20    	mov.w     #0x0, w2
 840:	03 f0 23    	mov.w     #0x3f00, w3
 842:	71 fd 07    	rcall     0x326

00000844 <common>:
 844:	01 f0 a2    	btg.w     w1, #0xf
 846:	00 06 be    	mov.d     w0, w12
 848:	02 00 20    	mov.w     #0x0, w2
 84a:	93 04 24    	mov.w     #0x4049, w3
 84c:	38 fd 07    	rcall     0x2be <___mulsf3>
 84e:	08 01 be    	mov.d     w8, w2
 850:	6b fd 07    	rcall     0x328
 852:	80 9f be    	mov.d     w0, [w15++]
 854:	0c 00 be    	mov.d     w12, w0
 856:	22 a2 2a    	mov.w     #0xaa22, w2
 858:	d3 a7 23    	mov.w     #0x3a7d, w3
 85a:	31 fd 07    	rcall     0x2be <___mulsf3>
 85c:	4f 01 be    	mov.d     [--w15], w2
 85e:	64 fd 07    	rcall     0x328
 860:	00 04 be    	mov.d     w0, w8
 862:	01 f0 a1    	bclr.w    w1, #0xf
 864:	02 00 20    	mov.w     #0x0, w2
 866:	03 98 23    	mov.w     #0x3980, w3
 868:	94 ff 07    	rcall     0x792 <___eqsf2>
 86a:	08 00 be    	mov.d     w8, w0
 86c:	19 00 35    	bra       LT, 0x8a0 <signresult>
 86e:	00 01 be    	mov.d     w0, w2
 870:	26 fd 07    	rcall     0x2be <___mulsf3>
 872:	00 06 be    	mov.d     w0, w12
 874:	b2 c5 29    	mov.w     #0x9c5b, w2
 876:	e3 62 23    	mov.w     #0x362e, w3
 878:	22 fd 07    	rcall     0x2be <___mulsf3>
 87a:	22 22 2b    	mov.w     #0xb222, w2
 87c:	f3 94 2b    	mov.w     #0xb94f, w3
 87e:	54 fd 07    	rcall     0x328
 880:	0c 01 be    	mov.d     w12, w2
 882:	1d fd 07    	rcall     0x2be <___mulsf3>
 884:	e2 73 28    	mov.w     #0x873e, w2
 886:	83 c0 23    	mov.w     #0x3c08, w3
 888:	4f fd 07    	rcall     0x328
 88a:	0c 01 be    	mov.d     w12, w2
 88c:	18 fd 07    	rcall     0x2be <___mulsf3>
 88e:	42 aa 2a    	mov.w     #0xaaa4, w2
 890:	a3 e2 2b    	mov.w     #0xbe2a, w3
 892:	4a fd 07    	rcall     0x328
 894:	0c 01 be    	mov.d     w12, w2
 896:	13 fd 07    	rcall     0x2be <___mulsf3>
 898:	08 01 be    	mov.d     w8, w2
 89a:	11 fd 07    	rcall     0x2be <___mulsf3>
 89c:	08 01 be    	mov.d     w8, w2
 89e:	44 fd 07    	rcall     0x328

000008a0 <signresult>:
 8a0:	0a 00 a7    	btsc.w    w10, #0x0
 8a2:	01 f0 a2    	btg.w     w1, #0xf

000008a4 <return0>:
 8a4:	4f 06 be    	mov.d     [--w15], w12
 8a6:	4f 05 be    	mov.d     [--w15], w10
 8a8:	4f 04 be    	mov.d     [--w15], w8
 8aa:	00 00 06    	return    

000008ac <_fmodf>:
 8ac:	04 00 20    	mov.w     #0x0, w4
 8ae:	00 00 37    	bra       0x8b0 <__fmodrem>

000008b0 <__fmodrem>:
 8b0:	88 9f be    	mov.d     w8, [w15++]
 8b2:	8a 9f be    	mov.d     w10, [w15++]
 8b4:	8c 1f 78    	mov.w     w12, [w15++]
 8b6:	4f 26 dd    	sl.w      w4, #0xf, w12
 8b8:	d4 fe 07    	rcall     0x662 <__funpack2>
 8ba:	db fe 33    	bra       N, 0x672 <__fPropagateNaN>
 8bc:	61 20 e1    	cp.w      w4, #0x1
 8be:	43 00 32    	bra       Z, 0x946 <domainerr>

000008c0 <checkxinf>:
 8c0:	62 50 e1    	cp.w      w10, #0x2
 8c2:	41 00 3e    	bra       GTU, 0x946 <domainerr>
 8c4:	3e 00 39    	bra       NC, 0x942 <return8>
 8c6:	64 20 e1    	cp.w      w4, #0x4
 8c8:	3c 00 32    	bra       Z, 0x942 <return8>
 8ca:	05 82 55    	sub.w     w11, w5, w4
 8cc:	0f 00 3b    	bra       NN, 0x8ec <rementry>
 8ce:	04 02 e8    	inc.w     w4, w4
 8d0:	38 00 3a    	bra       NZ, 0x942 <return8>
 8d2:	80 0f 53    	sub.w     w6, w0, [w15]
 8d4:	81 8f 5b    	subb.w    w7, w1, [w15]
 8d6:	35 00 34    	bra       LE, 0x942 <return8>
 8d8:	08 00 be    	mov.d     w8, w0
 8da:	03 f0 a1    	bclr.w    w3, #0xf
 8dc:	01 f0 a6    	btss.w    w1, #0xf
 8de:	03 f0 a0    	bset.w    w3, #0xf
 8e0:	0c f0 a7    	btsc.w    w12, #0xf
 8e2:	22 fd 07    	rcall     0x328
 8e4:	cf fe 37    	bra       0x684 <__fbopExit>

000008e6 <remloop>:
 8e6:	06 03 43    	add.w     w6, w6, w6
 8e8:	87 83 4b    	addc.w    w7, w7, w7
 8ea:	0c 46 46    	add.b     w12, w12, w12

000008ec <rementry>:
 8ec:	00 05 53    	sub.w     w6, w0, w10
 8ee:	81 85 5b    	subb.w    w7, w1, w11
 8f0:	02 00 33    	bra       N, 0x8f6 <remnext>
 8f2:	0a 03 be    	mov.d     w10, w6
 8f4:	0c 00 a0    	bset.w    w12, #0x0

000008f6 <remnext>:
 8f6:	04 02 e9    	dec.w     w4, w4
 8f8:	f6 ff 3b    	bra       NN, 0x8e6 <remloop>
 8fa:	85 05 78    	mov.w     w5, w11
 8fc:	06 02 43    	add.w     w6, w6, w4
 8fe:	87 82 4b    	addc.w    w7, w7, w5
 900:	04 00 3a    	bra       NZ, 0x90a <checkmag>
 902:	60 00 b8    	mul.uu    w0, #0x0, w0
 904:	09 f0 a7    	btsc.w    w9, #0xf
 906:	01 f0 a0    	bset.w    w1, #0xf
 908:	bd fe 37    	bra       0x684 <__fbopExit>

0000090a <checkmag>:
 90a:	00 02 52    	sub.w     w4, w0, w4
 90c:	81 82 5a    	subb.w    w5, w1, w5

0000090e <normrem>:
 90e:	07 04 e0    	cp0.b     w7
 910:	04 00 33    	bra       N, 0x91a <normout>
 912:	06 03 43    	add.w     w6, w6, w6
 914:	87 83 4b    	addc.w    w7, w7, w7
 916:	8b 05 e9    	dec.w     w11, w11
 918:	fa ff 37    	bra       0x90e <normrem>

0000091a <normout>:
 91a:	09 05 78    	mov.w     w9, w10
 91c:	06 04 be    	mov.d     w6, w8
 91e:	02 03 be    	mov.d     w2, w6
 920:	60 11 b8    	mul.uu    w2, #0x0, w2
 922:	b7 fe 07    	rcall     0x692 <__fpack>
 924:	e0 0f 52    	sub.w     w4, #0x0, [w15]
 926:	e0 8f 5a    	subb.w    w5, #0x0, [w15]
 928:	07 00 35    	bra       LT, 0x938 <setsign>
 92a:	02 00 3c    	bra       GT, 0x930 <adjustrem>
 92c:	0c 08 a3    	btst.z    w12, #0x0
 92e:	04 00 32    	bra       Z, 0x938 <setsign>

00000930 <adjustrem>:
 930:	06 01 be    	mov.d     w6, w2
 932:	03 f0 a0    	bset.w    w3, #0xf
 934:	0c f0 a7    	btsc.w    w12, #0xf
 936:	f8 fc 07    	rcall     0x328

00000938 <setsign>:
 938:	0a 85 68    	xor.w     w1, w10, w10
 93a:	01 f0 a1    	bclr.w    w1, #0xf
 93c:	0a f0 a7    	btsc.w    w10, #0xf
 93e:	01 f0 a0    	bset.w    w1, #0xf
 940:	a1 fe 37    	bra       0x684 <__fbopExit>

00000942 <return8>:
 942:	08 00 be    	mov.d     w8, w0
 944:	9f fe 37    	bra       0x684 <__fbopExit>

00000946 <domainerr>:
 946:	10 02 20    	mov.w     #0x21, w0
 948:	0c f0 a6    	btss.w    w12, #0xf
 94a:	00 5a 88    	mov.w     w0, 0xb40
 94c:	9f fe 37    	bra       0x68c <__fbopReturnNaN>

0000094e <___nesf2>:
 94e:	04 00 20    	mov.w     #0x0, w4
 950:	ed fe 37    	bra       0x72c <__fcompare>

00000952 <_MatrixInvert>:
 952:	fe 87 47    	add.w     w15, #0x1e, w15
 954:	88 9f be    	mov.d     w8, [w15++]
 956:	8a 9f be    	mov.d     w10, [w15++]
 958:	8c 9f be    	mov.d     w12, [w15++]
 95a:	8e 1f 78    	mov.w     w14, [w15++]
 95c:	00 07 78    	mov.w     w0, w14
 95e:	c1 b7 9f    	mov.w     w1, [w15-24]
 960:	d3 b7 9f    	mov.w     w3, [w15-22]
 962:	e4 b7 9f    	mov.w     w4, [w15-20]
 964:	f5 b7 9f    	mov.w     w5, [w15-18]
 966:	00 00 e0    	cp0.w     w0
 968:	3c 00 34    	bra       LE, 0x9e2 <.L61>
 96a:	04 00 78    	mov.w     w4, w0
 96c:	03 02 78    	mov.w     w3, w4
 96e:	85 01 78    	mov.w     w5, w3
 970:	80 00 eb    	clr.w     w1
 972:	60 33 b8    	mul.uu    w6, #0x0, w6

00000974 <.L4>:
 974:	06 9a be    	mov.d     w6, [w4++]
 976:	00 08 eb    	clr.w     [w0]
 978:	b0 19 78    	mov.w     [w0++], [w3++]
 97a:	81 00 e8    	inc.w     w1, w1
 97c:	81 0f 57    	sub.w     w14, w1, [w15]
 97e:	fa ff 3a    	bra       NZ, 0x974 <.L4>
 980:	4f b0 97    	mov.w     [w15-24], w0
 982:	82 0f 50    	sub.w     w0, w2, [w15]
 984:	31 00 32    	bra       Z, 0x9e8 <.L68>

00000986 <.L5>:
 986:	0e 00 e0    	cp0.w     w14
 988:	fb 00 3c    	bra       GT, 0xb80 <.L69>

0000098a <.L11>:
 98a:	0e 04 e9    	dec.w     w14, w8
 98c:	23 00 33    	bra       N, 0x9d4 <.L37>
 98e:	08 00 44    	add.w     w8, w8, w0
 990:	ef b0 97    	mov.w     [w15-20], w1
 992:	00 82 40    	add.w     w1, w0, w4
 994:	7f b1 97    	mov.w     [w15-18], w2
 996:	80 02 41    	add.w     w2, w0, w5

00000998 <.L39>:
 998:	14 05 78    	mov.w     [w4], w10
 99a:	95 04 78    	mov.w     [w5], w9
 99c:	89 0f 55    	sub.w     w10, w9, [w15]
 99e:	15 00 32    	bra       Z, 0x9ca <.L41>
 9a0:	0e 00 e0    	cp0.w     w14
 9a2:	13 00 34    	bra       LE, 0x9ca <.L41>
 9a4:	80 03 eb    	clr.w     w7
 9a6:	07 03 78    	mov.w     w7, w6
 9a8:	4f b6 97    	mov.w     [w15-24], w12

000009aa <.L43>:
 9aa:	06 00 45    	add.w     w10, w6, w0
 9ac:	00 00 40    	add.w     w0, w0, w0
 9ae:	00 00 40    	add.w     w0, w0, w0
 9b0:	00 00 46    	add.w     w12, w0, w0
 9b2:	10 01 be    	mov.d     [w0], w2
 9b4:	86 80 44    	add.w     w9, w6, w1
 9b6:	81 80 40    	add.w     w1, w1, w1
 9b8:	81 80 40    	add.w     w1, w1, w1
 9ba:	81 00 46    	add.w     w12, w1, w1
 9bc:	31 18 78    	mov.w     [w1++], [w0++]
 9be:	21 10 78    	mov.w     [w1--], [w0--]
 9c0:	82 88 be    	mov.d     w2, [w1]
 9c2:	87 03 e8    	inc.w     w7, w7
 9c4:	0e 03 43    	add.w     w6, w14, w6
 9c6:	87 0f 57    	sub.w     w14, w7, [w15]
 9c8:	f0 ff 3a    	bra       NZ, 0x9aa <.L43>

000009ca <.L41>:
 9ca:	08 04 e9    	dec.w     w8, w8
 9cc:	04 82 e9    	dec2.w    w4, w4
 9ce:	85 82 e9    	dec2.w    w5, w5
 9d0:	e1 0f 44    	add.w     w8, #0x1, [w15]
 9d2:	e2 ff 3a    	bra       NZ, 0x998 <.L39>

000009d4 <.L37>:
 9d4:	4f b0 97    	mov.w     [w15-24], w0
 9d6:	4f 07 78    	mov.w     [--w15], w14
 9d8:	4f 06 be    	mov.d     [--w15], w12
 9da:	4f 05 be    	mov.d     [--w15], w10
 9dc:	4f 04 be    	mov.d     [--w15], w8
 9de:	ef 01 b1    	sub.w     #0x1e, w15
 9e0:	00 00 06    	return    

000009e2 <.L61>:
 9e2:	01 00 78    	mov.w     w1, w0
 9e4:	82 0f 50    	sub.w     w0, w2, [w15]
 9e6:	cf ff 3a    	bra       NZ, 0x986 <.L5>

000009e8 <.L68>:
 9e8:	0e 00 e0    	cp0.w     w14
 9ea:	cf ff 34    	bra       LE, 0x98a <.L11>

000009ec <.L9>:
 9ec:	ef b0 97    	mov.w     [w15-20], w1
 9ee:	d1 af 9f    	mov.w     w1, [w15-38]
 9f0:	7f b1 97    	mov.w     [w15-18], w2
 9f2:	c2 af 9f    	mov.w     w2, [w15-40]
 9f4:	00 02 eb    	clr.w     w4
 9f6:	84 b7 9f    	mov.w     w4, [w15-32]
 9f8:	f4 af 9f    	mov.w     w4, [w15-34]
 9fa:	94 b7 9f    	mov.w     w4, [w15-30]
 9fc:	5f b6 97    	mov.w     [w15-22], w12
 9fe:	ec af 9f    	mov.w     w12, [w15-36]
 a00:	60 00 b8    	mul.uu    w0, #0x0, w0
 a02:	a0 b7 9f    	mov.w     w0, [w15-28]
 a04:	b1 b7 9f    	mov.w     w1, [w15-26]
 a06:	80 06 eb    	clr.w     w13

00000a08 <.L13>:
 a08:	60 11 b8    	mul.uu    w2, #0x0, w2
 a0a:	1c 00 be    	mov.d     [w12], w0
 a0c:	a0 ff 07    	rcall     0x94e <___nesf2>
 a0e:	00 00 e0    	cp0.w     w0
 a10:	2a 00 3a    	bra       NZ, 0xa66 <.L62>

00000a12 <.L71>:
 a12:	5f b5 97    	mov.w     [w15-22], w10
 a14:	0e e8 b9    	mul.ss    w13, w14, w0
 a16:	00 00 40    	add.w     w0, w0, w0
 a18:	00 00 40    	add.w     w0, w0, w0
 a1a:	cf b0 97    	mov.w     [w15-24], w1
 a1c:	80 85 40    	add.w     w1, w0, w11
 a1e:	00 06 eb    	clr.w     w12

00000a20 <.L16>:
 a20:	60 11 b8    	mul.uu    w2, #0x0, w2
 a22:	1a 00 be    	mov.d     [w10], w0
 a24:	94 ff 07    	rcall     0x94e <___nesf2>
 a26:	00 00 e0    	cp0.w     w0
 a28:	0d 00 3a    	bra       NZ, 0xa44 <.L17>
 a2a:	1b 04 be    	mov.d     [w11], w8
 a2c:	08 01 be    	mov.d     w8, w2
 a2e:	03 f0 a1    	bclr.w    w3, #0xf
 a30:	2f b0 97    	mov.w     [w15-28], w0
 a32:	bf b0 97    	mov.w     [w15-26], w1
 a34:	ae fe 07    	rcall     0x792 <___eqsf2>
 a36:	00 00 e0    	cp0.w     w0
 a38:	05 00 3c    	bra       GT, 0xa44 <.L17>
 a3a:	09 f0 a1    	bclr.w    w9, #0xf
 a3c:	a8 b7 9f    	mov.w     w8, [w15-28]
 a3e:	b9 b7 9f    	mov.w     w9, [w15-26]
 a40:	8d b7 9f    	mov.w     w13, [w15-32]
 a42:	fc af 9f    	mov.w     w12, [w15-34]

00000a44 <.L17>:
 a44:	0c 06 e8    	inc.w     w12, w12
 a46:	64 05 45    	add.w     w10, #0x4, w10
 a48:	e4 85 45    	add.w     w11, #0x4, w11
 a4a:	8c 0f 57    	sub.w     w14, w12, [w15]
 a4c:	e9 ff 3a    	bra       NZ, 0xa20 <.L16>
 a4e:	6f ab 97    	mov.w     [w15-36], w6
 a50:	8d 06 e8    	inc.w     w13, w13
 a52:	64 03 43    	add.w     w6, #0x4, w6
 a54:	e6 af 9f    	mov.w     w6, [w15-36]
 a56:	8d 0f 57    	sub.w     w14, w13, [w15]
 a58:	0c 00 32    	bra       Z, 0xa72 <.L70>

00000a5a <.L63>:
 a5a:	06 06 78    	mov.w     w6, w12
 a5c:	60 11 b8    	mul.uu    w2, #0x0, w2
 a5e:	1c 00 be    	mov.d     [w12], w0
 a60:	76 ff 07    	rcall     0x94e <___nesf2>
 a62:	00 00 e0    	cp0.w     w0
 a64:	d6 ff 32    	bra       Z, 0xa12 <.L71>

00000a66 <.L62>:
 a66:	0c 03 78    	mov.w     w12, w6
 a68:	8d 06 e8    	inc.w     w13, w13
 a6a:	64 03 43    	add.w     w6, #0x4, w6
 a6c:	e6 af 9f    	mov.w     w6, [w15-36]
 a6e:	8d 0f 57    	sub.w     w14, w13, [w15]
 a70:	f4 ff 3a    	bra       NZ, 0xa5a <.L63>

00000a72 <.L70>:
 a72:	ff ab 97    	mov.w     [w15-34], w7
 a74:	07 84 43    	add.w     w7, w7, w8
 a76:	08 04 44    	add.w     w8, w8, w8
 a78:	5f b6 97    	mov.w     [w15-22], w12
 a7a:	0c 04 44    	add.w     w8, w12, w8
 a7c:	02 00 20    	mov.w     #0x0, w2
 a7e:	03 f8 23    	mov.w     #0x3f80, w3
 a80:	18 00 be    	mov.d     [w8], w0
 a82:	52 fc 07    	rcall     0x328
 a84:	00 8c be    	mov.d     w0, [w8]
 a86:	0f b0 97    	mov.w     [w15-32], w0
 a88:	ff a8 97    	mov.w     [w15-34], w1
 a8a:	81 0f 50    	sub.w     w0, w1, [w15]
 a8c:	86 00 32    	bra       Z, 0xb9a <.L72>
 a8e:	00 02 78    	mov.w     w0, w4
 a90:	01 f0 b9    	mul.ss    w14, w1, w0
 a92:	80 04 78    	mov.w     w0, w9
 a94:	04 f0 b9    	mul.ss    w14, w4, w0
 a96:	00 00 40    	add.w     w0, w0, w0
 a98:	00 00 40    	add.w     w0, w0, w0
 a9a:	4f b3 97    	mov.w     [w15-24], w6
 a9c:	80 01 43    	add.w     w6, w0, w3
 a9e:	09 80 44    	add.w     w9, w9, w0
 aa0:	00 00 40    	add.w     w0, w0, w0
 aa2:	00 01 43    	add.w     w6, w0, w2
 aa4:	00 02 eb    	clr.w     w4

00000aa6 <.L25>:
 aa6:	13 00 be    	mov.d     [w3], w0
 aa8:	12 03 be    	mov.d     [w2], w6
 aaa:	86 99 be    	mov.d     w6, [w3++]
 aac:	00 99 be    	mov.d     w0, [w2++]
 aae:	04 02 e8    	inc.w     w4, w4
 ab0:	84 0f 57    	sub.w     w14, w4, [w15]
 ab2:	f9 ff 3a    	bra       NZ, 0xaa6 <.L25>
 ab4:	0f b6 97    	mov.w     [w15-32], w12
 ab6:	df ab 97    	mov.w     [w15-38], w7
 ab8:	8c 0b 78    	mov.w     w12, [w7]
 aba:	ff a8 97    	mov.w     [w15-34], w1
 abc:	4f a8 97    	mov.w     [w15-40], w0
 abe:	01 08 78    	mov.w     w1, [w0]
 ac0:	09 80 40    	add.w     w1, w9, w0
 ac2:	00 00 40    	add.w     w0, w0, w0
 ac4:	00 00 40    	add.w     w0, w0, w0
 ac6:	4f b1 97    	mov.w     [w15-24], w2
 ac8:	00 04 41    	add.w     w2, w0, w8
 aca:	60 11 b8    	mul.uu    w2, #0x0, w2
 acc:	18 00 be    	mov.d     [w8], w0
 ace:	61 fe 07    	rcall     0x792 <___eqsf2>
 ad0:	00 00 e0    	cp0.w     w0
 ad2:	75 00 32    	bra       Z, 0xbbe <.L73>

00000ad4 <.L26>:
 ad4:	18 01 be    	mov.d     [w8], w2
 ad6:	00 00 20    	mov.w     #0x0, w0
 ad8:	01 f8 23    	mov.w     #0x3f80, w1
 ada:	c0 fc 07    	rcall     0x45c
 adc:	00 05 be    	mov.d     w0, w10
 ade:	00 00 20    	mov.w     #0x0, w0
 ae0:	01 f8 23    	mov.w     #0x3f80, w1
 ae2:	00 8c be    	mov.d     w0, [w8]
 ae4:	09 80 44    	add.w     w9, w9, w0
 ae6:	00 00 40    	add.w     w0, w0, w0
 ae8:	4f b2 97    	mov.w     [w15-24], w4
 aea:	00 00 42    	add.w     w4, w0, w0
 aec:	80 bf 9f    	mov.w     w0, [w15-16]
 aee:	00 04 78    	mov.w     w0, w8
 af0:	80 04 eb    	clr.w     w9

00000af2 <.L30>:
 af2:	18 01 be    	mov.d     [w8], w2
 af4:	0a 00 be    	mov.d     w10, w0
 af6:	e3 fb 07    	rcall     0x2be <___mulsf3>
 af8:	00 9c be    	mov.d     w0, [w8++]
 afa:	89 04 e8    	inc.w     w9, w9
 afc:	89 0f 57    	sub.w     w14, w9, [w15]
 afe:	f9 ff 3a    	bra       NZ, 0xaf2 <.L30>
 b00:	00 03 eb    	clr.w     w6
 b02:	b6 af 9f    	mov.w     w6, [w15-42]
 b04:	86 05 78    	mov.w     w6, w11
 b06:	86 03 78    	mov.w     w6, w7
 b08:	7f ae 97    	mov.w     [w15-34], w12
 b0a:	8c 8f 53    	sub.w     w7, w12, [w15]
 b0c:	21 00 32    	bra       Z, 0xb50 <.L64>

00000b0e <.L75>:
 b0e:	0c 80 45    	add.w     w11, w12, w0
 b10:	00 00 40    	add.w     w0, w0, w0
 b12:	00 00 40    	add.w     w0, w0, w0
 b14:	cf b0 97    	mov.w     [w15-24], w1
 b16:	00 80 40    	add.w     w1, w0, w0
 b18:	10 06 be    	mov.d     [w0], w12
 b1a:	60 11 b8    	mul.uu    w2, #0x0, w2
 b1c:	02 88 be    	mov.d     w2, [w0]
 b1e:	0b 80 45    	add.w     w11, w11, w0
 b20:	00 00 40    	add.w     w0, w0, w0
 b22:	00 84 40    	add.w     w1, w0, w8
 b24:	0f bd 97    	mov.w     [w15-16], w10
 b26:	80 04 eb    	clr.w     w9

00000b28 <.L35>:
 b28:	3a 01 be    	mov.d     [w10++], w2
 b2a:	0c 00 be    	mov.d     w12, w0
 b2c:	c8 fb 07    	rcall     0x2be <___mulsf3>
 b2e:	00 01 be    	mov.d     w0, w2
 b30:	18 00 be    	mov.d     [w8], w0
 b32:	f9 fb 07    	rcall     0x326
 b34:	00 9c be    	mov.d     w0, [w8++]
 b36:	89 04 e8    	inc.w     w9, w9
 b38:	89 0f 57    	sub.w     w14, w9, [w15]
 b3a:	f6 ff 3a    	bra       NZ, 0xb28
 b3c:	3f a9 97    	mov.w     [w15-42], w2
 b3e:	02 01 e8    	inc.w     w2, w2
 b40:	b2 af 9f    	mov.w     w2, [w15-42]
 b42:	8e 85 45    	add.w     w11, w14, w11
 b44:	82 0f 57    	sub.w     w14, w2, [w15]
 b46:	0a 00 32    	bra       Z, 0xb5c <.L74>

00000b48 <.L65>:
 b48:	82 03 78    	mov.w     w2, w7
 b4a:	7f ae 97    	mov.w     [w15-34], w12
 b4c:	8c 8f 53    	sub.w     w7, w12, [w15]
 b4e:	df ff 3a    	bra       NZ, 0xb0e

00000b50 <.L64>:
 b50:	07 01 78    	mov.w     w7, w2
 b52:	02 01 e8    	inc.w     w2, w2
 b54:	b2 af 9f    	mov.w     w2, [w15-42]
 b56:	8e 85 45    	add.w     w11, w14, w11
 b58:	82 0f 57    	sub.w     w14, w2, [w15]
 b5a:	f6 ff 3a    	bra       NZ, 0xb48 <.L65>

00000b5c <.L74>:
 b5c:	1f b2 97    	mov.w     [w15-30], w4
 b5e:	04 02 e8    	inc.w     w4, w4
 b60:	94 b7 9f    	mov.w     w4, [w15-30]
 b62:	5f ab 97    	mov.w     [w15-38], w6
 b64:	06 83 e8    	inc2.w    w6, w6
 b66:	d6 af 9f    	mov.w     w6, [w15-38]
 b68:	cf ab 97    	mov.w     [w15-40], w7
 b6a:	87 83 e8    	inc2.w    w7, w7
 b6c:	c7 af 9f    	mov.w     w7, [w15-40]
 b6e:	84 0f 57    	sub.w     w14, w4, [w15]
 b70:	0c ff 32    	bra       Z, 0x98a <.L11>
 b72:	5f b6 97    	mov.w     [w15-22], w12
 b74:	ec af 9f    	mov.w     w12, [w15-36]
 b76:	60 00 b8    	mul.uu    w0, #0x0, w0
 b78:	a0 b7 9f    	mov.w     w0, [w15-28]
 b7a:	b1 b7 9f    	mov.w     w1, [w15-26]
 b7c:	80 06 eb    	clr.w     w13
 b7e:	44 ff 37    	bra       0xa08 <.L13>

00000b80 <.L69>:
 b80:	cf b0 97    	mov.w     [w15-24], w1
 b82:	80 01 eb    	clr.w     w3
 b84:	00 00 eb    	clr.w     w0

00000b86 <.L7>:
 b86:	b2 18 78    	mov.w     [w2++], [w1++]
 b88:	b2 18 78    	mov.w     [w2++], [w1++]
 b8a:	00 00 e8    	inc.w     w0, w0
 b8c:	80 0f 57    	sub.w     w14, w0, [w15]
 b8e:	fb ff 3a    	bra       NZ, 0xb86 <.L7>
 b90:	83 01 e8    	inc.w     w3, w3
 b92:	83 0f 57    	sub.w     w14, w3, [w15]
 b94:	2b ff 32    	bra       Z, 0x9ec <.L9>
 b96:	00 00 eb    	clr.w     w0
 b98:	f6 ff 37    	bra       0xb86 <.L7>

00000b9a <.L72>:
 b9a:	01 f0 b9    	mul.ss    w14, w1, w0
 b9c:	80 04 78    	mov.w     w0, w9
 b9e:	0f b6 97    	mov.w     [w15-32], w12
 ba0:	df ab 97    	mov.w     [w15-38], w7
 ba2:	8c 0b 78    	mov.w     w12, [w7]
 ba4:	ff a8 97    	mov.w     [w15-34], w1
 ba6:	4f a8 97    	mov.w     [w15-40], w0
 ba8:	01 08 78    	mov.w     w1, [w0]
 baa:	09 80 40    	add.w     w1, w9, w0
 bac:	00 00 40    	add.w     w0, w0, w0
 bae:	00 00 40    	add.w     w0, w0, w0
 bb0:	4f b1 97    	mov.w     [w15-24], w2
 bb2:	00 04 41    	add.w     w2, w0, w8
 bb4:	60 11 b8    	mul.uu    w2, #0x0, w2
 bb6:	18 00 be    	mov.d     [w8], w0
 bb8:	ec fd 07    	rcall     0x792 <___eqsf2>
 bba:	00 00 e0    	cp0.w     w0
 bbc:	8b ff 3a    	bra       NZ, 0xad4 <.L26>

00000bbe <.L73>:
 bbe:	00 00 20    	mov.w     #0x0, w0
 bc0:	4f 07 78    	mov.w     [--w15], w14
 bc2:	4f 06 be    	mov.d     [--w15], w12
 bc4:	4f 05 be    	mov.d     [--w15], w10
 bc6:	4f 04 be    	mov.d     [--w15], w8
 bc8:	ef 01 b1    	sub.w     #0x1e, w15
 bca:	00 00 06    	return    
 bcc:	0a ff 37    	bra       0x9e2 <.L61>
Disassembly of section __FGS:

00f80004 <__FGS.sec>:
  f80004:	ff ff 00    	nop       
Disassembly of section __FOSCSEL:

00f80006 <__FOSCSEL.sec>:
  f80006:	fa ff 00    	nop       
Disassembly of section __FOSC:

00f80008 <__FOSC.sec>:
  f80008:	f9 ff 00    	nop       
Disassembly of section __FWDT:

00f8000a <__FWDT.sec>:
  f8000a:	7f ff 00    	nop       
Disassembly of section .ivt:

00000004 <.ivt>:
   4:	28 02 00    	nop       
   6:	28 02 00    	nop       
   8:	28 02 00    	nop       
   a:	28 02 00    	nop       
   c:	28 02 00    	nop       
   e:	28 02 00    	nop       
  10:	28 02 00    	nop       
  12:	28 02 00    	nop       
  14:	28 02 00    	nop       
  16:	28 02 00    	nop       
  18:	28 02 00    	nop       
  1a:	32 14 00    	nop       
  1c:	28 02 00    	nop       
  1e:	28 02 00    	nop       
  20:	28 02 00    	nop       
  22:	28 02 00    	nop       
  24:	28 02 00    	nop       
  26:	28 02 00    	nop       
  28:	28 02 00    	nop       
  2a:	28 02 00    	nop       
  2c:	28 02 00    	nop       
  2e:	da 2d 00    	nop       
  30:	28 02 00    	nop       
  32:	28 02 00    	nop       
  34:	28 02 00    	nop       
  36:	28 02 00    	nop       
  38:	28 02 00    	nop       
  3a:	32 2e 00    	nop       
  3c:	28 02 00    	nop       
  3e:	28 02 00    	nop       
  40:	28 02 00    	nop       
  42:	28 02 00    	nop       
  44:	28 02 00    	nop       
  46:	28 02 00    	nop       
  48:	28 02 00    	nop       
  4a:	28 02 00    	nop       
  4c:	28 02 00    	nop       
  4e:	28 02 00    	nop       
  50:	28 02 00    	nop       
  52:	28 02 00    	nop       
  54:	28 02 00    	nop       
  56:	28 02 00    	nop       
  58:	28 02 00    	nop       
  5a:	28 02 00    	nop       
  5c:	28 02 00    	nop       
  5e:	28 02 00    	nop       
  60:	28 02 00    	nop       
  62:	28 02 00    	nop       
  64:	28 02 00    	nop       
  66:	28 02 00    	nop       
  68:	28 02 00    	nop       
  6a:	28 02 00    	nop       
  6c:	28 02 00    	nop       
  6e:	28 02 00    	nop       
  70:	28 02 00    	nop       
  72:	28 02 00    	nop       
  74:	28 02 00    	nop       
  76:	28 02 00    	nop       
  78:	28 02 00    	nop       
  7a:	28 02 00    	nop       
  7c:	28 02 00    	nop       
  7e:	28 02 00    	nop       
  80:	28 02 00    	nop       
  82:	28 02 00    	nop       
  84:	28 02 00    	nop       
  86:	28 02 00    	nop       
  88:	28 02 00    	nop       
  8a:	28 02 00    	nop       
  8c:	28 02 00    	nop       
  8e:	28 02 00    	nop       
  90:	28 02 00    	nop       
  92:	28 02 00    	nop       
  94:	28 02 00    	nop       
  96:	28 02 00    	nop       
  98:	28 02 00    	nop       
  9a:	28 02 00    	nop       
  9c:	28 02 00    	nop       
  9e:	28 02 00    	nop       
  a0:	28 02 00    	nop       
  a2:	28 02 00    	nop       
  a4:	28 02 00    	nop       
  a6:	28 02 00    	nop       
  a8:	28 02 00    	nop       
  aa:	28 02 00    	nop       
  ac:	28 02 00    	nop       
  ae:	28 02 00    	nop       
  b0:	28 02 00    	nop       
  b2:	28 02 00    	nop       
  b4:	28 02 00    	nop       
  b6:	28 02 00    	nop       
  b8:	28 02 00    	nop       
  ba:	28 02 00    	nop       
  bc:	28 02 00    	nop       
  be:	28 02 00    	nop       
  c0:	28 02 00    	nop       
  c2:	28 02 00    	nop       
  c4:	28 02 00    	nop       
  c6:	28 02 00    	nop       
  c8:	28 02 00    	nop       
  ca:	28 02 00    	nop       
  cc:	28 02 00    	nop       
  ce:	28 02 00    	nop       
  d0:	28 02 00    	nop       
  d2:	28 02 00    	nop       
  d4:	28 02 00    	nop       
  d6:	28 02 00    	nop       
  d8:	28 02 00    	nop       
  da:	28 02 00    	nop       
  dc:	28 02 00    	nop       
  de:	28 02 00    	nop       
  e0:	28 02 00    	nop       
  e2:	28 02 00    	nop       
  e4:	28 02 00    	nop       
  e6:	28 02 00    	nop       
  e8:	28 02 00    	nop       
  ea:	28 02 00    	nop       
  ec:	28 02 00    	nop       
  ee:	28 02 00    	nop       
  f0:	28 02 00    	nop       
  f2:	28 02 00    	nop       
  f4:	28 02 00    	nop       
  f6:	28 02 00    	nop       
  f8:	28 02 00    	nop       
  fa:	28 02 00    	nop       
  fc:	28 02 00    	nop       
  fe:	28 02 00    	nop       
Disassembly of section .aivt:

00000104 <.aivt>:
 104:	28 02 00    	nop       
 106:	28 02 00    	nop       
 108:	28 02 00    	nop       
 10a:	28 02 00    	nop       
 10c:	28 02 00    	nop       
 10e:	28 02 00    	nop       
 110:	28 02 00    	nop       
 112:	28 02 00    	nop       
 114:	28 02 00    	nop       
 116:	28 02 00    	nop       
 118:	28 02 00    	nop       
 11a:	32 14 00    	nop       
 11c:	28 02 00    	nop       
 11e:	28 02 00    	nop       
 120:	28 02 00    	nop       
 122:	28 02 00    	nop       
 124:	28 02 00    	nop       
 126:	28 02 00    	nop       
 128:	28 02 00    	nop       
 12a:	28 02 00    	nop       
 12c:	28 02 00    	nop       
 12e:	da 2d 00    	nop       
 130:	28 02 00    	nop       
 132:	28 02 00    	nop       
 134:	28 02 00    	nop       
 136:	28 02 00    	nop       
 138:	28 02 00    	nop       
 13a:	32 2e 00    	nop       
 13c:	28 02 00    	nop       
 13e:	28 02 00    	nop       
 140:	28 02 00    	nop       
 142:	28 02 00    	nop       
 144:	28 02 00    	nop       
 146:	28 02 00    	nop       
 148:	28 02 00    	nop       
 14a:	28 02 00    	nop       
 14c:	28 02 00    	nop       
 14e:	28 02 00    	nop       
 150:	28 02 00    	nop       
 152:	28 02 00    	nop       
 154:	28 02 00    	nop       
 156:	28 02 00    	nop       
 158:	28 02 00    	nop       
 15a:	28 02 00    	nop       
 15c:	28 02 00    	nop       
 15e:	28 02 00    	nop       
 160:	28 02 00    	nop       
 162:	28 02 00    	nop       
 164:	28 02 00    	nop       
 166:	28 02 00    	nop       
 168:	28 02 00    	nop       
 16a:	28 02 00    	nop       
 16c:	28 02 00    	nop       
 16e:	28 02 00    	nop       
 170:	28 02 00    	nop       
 172:	28 02 00    	nop       
 174:	28 02 00    	nop       
 176:	28 02 00    	nop       
 178:	28 02 00    	nop       
 17a:	28 02 00    	nop       
 17c:	28 02 00    	nop       
 17e:	28 02 00    	nop       
 180:	28 02 00    	nop       
 182:	28 02 00    	nop       
 184:	28 02 00    	nop       
 186:	28 02 00    	nop       
 188:	28 02 00    	nop       
 18a:	28 02 00    	nop       
 18c:	28 02 00    	nop       
 18e:	28 02 00    	nop       
 190:	28 02 00    	nop       
 192:	28 02 00    	nop       
 194:	28 02 00    	nop       
 196:	28 02 00    	nop       
 198:	28 02 00    	nop       
 19a:	28 02 00    	nop       
 19c:	28 02 00    	nop       
 19e:	28 02 00    	nop       
 1a0:	28 02 00    	nop       
 1a2:	28 02 00    	nop       
 1a4:	28 02 00    	nop       
 1a6:	28 02 00    	nop       
 1a8:	28 02 00    	nop       
 1aa:	28 02 00    	nop       
 1ac:	28 02 00    	nop       
 1ae:	28 02 00    	nop       
 1b0:	28 02 00    	nop       
 1b2:	28 02 00    	nop       
 1b4:	28 02 00    	nop       
 1b6:	28 02 00    	nop       
 1b8:	28 02 00    	nop       
 1ba:	28 02 00    	nop       
 1bc:	28 02 00    	nop       
 1be:	28 02 00    	nop       
 1c0:	28 02 00    	nop       
 1c2:	28 02 00    	nop       
 1c4:	28 02 00    	nop       
 1c6:	28 02 00    	nop       
 1c8:	28 02 00    	nop       
 1ca:	28 02 00    	nop       
 1cc:	28 02 00    	nop       
 1ce:	28 02 00    	nop       
 1d0:	28 02 00    	nop       
 1d2:	28 02 00    	nop       
 1d4:	28 02 00    	nop       
 1d6:	28 02 00    	nop       
 1d8:	28 02 00    	nop       
 1da:	28 02 00    	nop       
 1dc:	28 02 00    	nop       
 1de:	28 02 00    	nop       
 1e0:	28 02 00    	nop       
 1e2:	28 02 00    	nop       
 1e4:	28 02 00    	nop       
 1e6:	28 02 00    	nop       
 1e8:	28 02 00    	nop       
 1ea:	28 02 00    	nop       
 1ec:	28 02 00    	nop       
 1ee:	28 02 00    	nop       
 1f0:	28 02 00    	nop       
 1f2:	28 02 00    	nop       
 1f4:	28 02 00    	nop       
 1f6:	28 02 00    	nop       
 1f8:	28 02 00    	nop       
 1fa:	28 02 00    	nop       
 1fc:	28 02 00    	nop       
 1fe:	28 02 00    	nop       
Disassembly of section .text:

00000c4e <_Transpose_Matrix>:
     c4e:	88 9f be    	mov.d     w8, [w15++]
     c50:	8a 9f be    	mov.d     w10, [w15++]
     c52:	80 03 78    	mov.w     w0, w7
     c54:	01 04 78    	mov.w     w1, w8
     c56:	02 00 e0    	cp0.w     w2
     c58:	16 00 34    	bra       LE, 0xc86 <.L8>
     c5a:	02 00 41    	add.w     w2, w2, w0
     c5c:	80 00 40    	add.w     w0, w0, w1
     c5e:	03 80 41    	add.w     w3, w3, w0
     c60:	80 04 40    	add.w     w0, w0, w9
     c62:	87 02 78    	mov.w     w7, w5
     c64:	00 00 eb    	clr.w     w0

00000c66 <.L4>:
     c66:	03 00 e0    	cp0.w     w3
     c68:	08 00 34    	bra       LE, 0xc7a <.L6>
     c6a:	08 03 78    	mov.w     w8, w6
     c6c:	00 02 eb    	clr.w     w4

00000c6e <.L5>:
     c6e:	36 05 be    	mov.d     [w6++], w10
     c70:	8a 8a be    	mov.d     w10, [w5]
     c72:	81 82 42    	add.w     w5, w1, w5
     c74:	04 02 e8    	inc.w     w4, w4
     c76:	84 8f 51    	sub.w     w3, w4, [w15]
     c78:	fa ff 3a    	bra       NZ, 0xc6e <.L5>

00000c7a <.L6>:
     c7a:	e4 83 43    	add.w     w7, #0x4, w7
     c7c:	09 04 44    	add.w     w8, w9, w8
     c7e:	00 00 e8    	inc.w     w0, w0
     c80:	87 02 78    	mov.w     w7, w5
     c82:	80 0f 51    	sub.w     w2, w0, [w15]
     c84:	f0 ff 3a    	bra       NZ, 0xc66 <.L4>

00000c86 <.L8>:
     c86:	4f 05 be    	mov.d     [--w15], w10
     c88:	4f 04 be    	mov.d     [--w15], w8
     c8a:	00 00 06    	return    

00000c8c <_Multiply_Matrices>:
     c8c:	f0 87 47    	add.w     w15, #0x10, w15
     c8e:	88 9f be    	mov.d     w8, [w15++]
     c90:	8a 9f be    	mov.d     w10, [w15++]
     c92:	8c 9f be    	mov.d     w12, [w15++]
     c94:	8e 1f 78    	mov.w     w14, [w15++]
     c96:	80 05 78    	mov.w     w0, w11
     c98:	c1 b7 9f    	mov.w     w1, [w15-24]
     c9a:	d2 b7 9f    	mov.w     w2, [w15-22]
     c9c:	03 06 78    	mov.w     w3, w12
     c9e:	e4 b7 9f    	mov.w     w4, [w15-20]
     ca0:	f5 b7 9f    	mov.w     w5, [w15-18]
     ca2:	02 00 e0    	cp0.w     w2
     ca4:	31 00 34    	bra       LE, 0xd08 <.L22>
     ca6:	05 80 42    	add.w     w5, w5, w0
     ca8:	00 07 40    	add.w     w0, w0, w14
     caa:	03 80 41    	add.w     w3, w3, w0
     cac:	00 00 40    	add.w     w0, w0, w0
     cae:	80 bf 9f    	mov.w     w0, [w15-16]
     cb0:	00 00 eb    	clr.w     w0
     cb2:	b0 b7 9f    	mov.w     w0, [w15-26]

00000cb4 <.L15>:
     cb4:	7f b1 97    	mov.w     [w15-18], w2
     cb6:	02 00 e0    	cp0.w     w2
     cb8:	1d 00 34    	bra       LE, 0xcf4 <.L21>
     cba:	ef b6 97    	mov.w     [w15-20], w13
     cbc:	80 00 eb    	clr.w     w1
     cbe:	a1 b7 9f    	mov.w     w1, [w15-28]

00000cc0 <.L17>:
     cc0:	60 00 b8    	mul.uu    w0, #0x0, w0
     cc2:	80 8d be    	mov.d     w0, [w11]
     cc4:	0c 00 e0    	cp0.w     w12
     cc6:	0e 00 34    	bra       LE, 0xce4 <.L18>
     cc8:	4f b5 97    	mov.w     [w15-24], w10
     cca:	0d 04 78    	mov.w     w13, w8
     ccc:	80 04 eb    	clr.w     w9

00000cce <.L20>:
     cce:	18 01 be    	mov.d     [w8], w2
     cd0:	3a 00 be    	mov.d     [w10++], w0
     cd2:	f5 fa 07    	rcall     0x2be <___mulsf3>
     cd4:	00 01 be    	mov.d     w0, w2
     cd6:	1b 00 be    	mov.d     [w11], w0
     cd8:	27 fb 07    	rcall     0x328
     cda:	80 8d be    	mov.d     w0, [w11]
     cdc:	0e 04 44    	add.w     w8, w14, w8
     cde:	89 04 e8    	inc.w     w9, w9
     ce0:	89 0f 56    	sub.w     w12, w9, [w15]
     ce2:	f5 ff 3a    	bra       NZ, 0xcce <.L20>

00000ce4 <.L18>:
     ce4:	e4 85 45    	add.w     w11, #0x4, w11
     ce6:	e4 86 46    	add.w     w13, #0x4, w13
     ce8:	2f b1 97    	mov.w     [w15-28], w2
     cea:	02 01 e8    	inc.w     w2, w2
     cec:	a2 b7 9f    	mov.w     w2, [w15-28]
     cee:	7f b0 97    	mov.w     [w15-18], w0
     cf0:	82 0f 50    	sub.w     w0, w2, [w15]
     cf2:	e6 ff 3a    	bra       NZ, 0xcc0 <.L17>

00000cf4 <.L21>:
     cf4:	cf b0 97    	mov.w     [w15-24], w1
     cf6:	0f b9 97    	mov.w     [w15-16], w2
     cf8:	82 80 40    	add.w     w1, w2, w1
     cfa:	c1 b7 9f    	mov.w     w1, [w15-24]
     cfc:	3f b0 97    	mov.w     [w15-26], w0
     cfe:	00 00 e8    	inc.w     w0, w0
     d00:	b0 b7 9f    	mov.w     w0, [w15-26]
     d02:	df b0 97    	mov.w     [w15-22], w1
     d04:	80 8f 50    	sub.w     w1, w0, [w15]
     d06:	d6 ff 3a    	bra       NZ, 0xcb4 <.L15>

00000d08 <.L22>:
     d08:	4f 07 78    	mov.w     [--w15], w14
     d0a:	4f 06 be    	mov.d     [--w15], w12
     d0c:	4f 05 be    	mov.d     [--w15], w10
     d0e:	4f 04 be    	mov.d     [--w15], w8
     d10:	0f 01 b1    	sub.w     #0x10, w15
     d12:	00 00 06    	return    

00000d14 <_Multiply_Matrix_by_Scalar>:
     d14:	88 9f be    	mov.d     w8, [w15++]
     d16:	8a 9f be    	mov.d     w10, [w15++]
     d18:	8c 9f be    	mov.d     w12, [w15++]
     d1a:	02 06 be    	mov.d     w2, w12
     d1c:	05 a2 b9    	mul.ss    w4, w5, w4
     d1e:	84 05 78    	mov.w     w4, w11
     d20:	04 00 e0    	cp0.w     w4
     d22:	0a 00 34    	bra       LE, 0xd38 <.L31>
     d24:	01 05 78    	mov.w     w1, w10
     d26:	80 04 78    	mov.w     w0, w9
     d28:	00 04 eb    	clr.w     w8

00000d2a <.L30>:
     d2a:	0c 01 be    	mov.d     w12, w2
     d2c:	3a 00 be    	mov.d     [w10++], w0
     d2e:	c7 fa 07    	rcall     0x2be <___mulsf3>
     d30:	80 9c be    	mov.d     w0, [w9++]
     d32:	08 04 e8    	inc.w     w8, w8
     d34:	88 8f 55    	sub.w     w11, w8, [w15]
     d36:	f9 ff 3a    	bra       NZ, 0xd2a <.L30>

00000d38 <.L31>:
     d38:	4f 06 be    	mov.d     [--w15], w12
     d3a:	4f 05 be    	mov.d     [--w15], w10
     d3c:	4f 04 be    	mov.d     [--w15], w8
     d3e:	00 00 06    	return    

00000d40 <_Add_Matrices>:
     d40:	88 9f be    	mov.d     w8, [w15++]
     d42:	8a 9f be    	mov.d     w10, [w15++]
     d44:	8c 1f 78    	mov.w     w12, [w15++]
     d46:	04 9a b9    	mul.ss    w3, w4, w4
     d48:	04 06 78    	mov.w     w4, w12
     d4a:	04 00 e0    	cp0.w     w4
     d4c:	0b 00 34    	bra       LE, 0xd64 <.L39>
     d4e:	81 05 78    	mov.w     w1, w11
     d50:	02 05 78    	mov.w     w2, w10
     d52:	80 04 78    	mov.w     w0, w9
     d54:	00 04 eb    	clr.w     w8

00000d56 <.L38>:
     d56:	3a 01 be    	mov.d     [w10++], w2
     d58:	3b 00 be    	mov.d     [w11++], w0
     d5a:	e6 fa 07    	rcall     0x328
     d5c:	80 9c be    	mov.d     w0, [w9++]
     d5e:	08 04 e8    	inc.w     w8, w8
     d60:	88 0f 56    	sub.w     w12, w8, [w15]
     d62:	f9 ff 3a    	bra       NZ, 0xd56 <.L38>

00000d64 <.L39>:
     d64:	4f 06 78    	mov.w     [--w15], w12
     d66:	4f 05 be    	mov.d     [--w15], w10
     d68:	4f 04 be    	mov.d     [--w15], w8
     d6a:	00 00 06    	return    

00000d6c <_Subtract_Matrices>:
     d6c:	88 9f be    	mov.d     w8, [w15++]
     d6e:	8a 9f be    	mov.d     w10, [w15++]
     d70:	8c 1f 78    	mov.w     w12, [w15++]
     d72:	04 9a b9    	mul.ss    w3, w4, w4
     d74:	04 06 78    	mov.w     w4, w12
     d76:	04 00 e0    	cp0.w     w4
     d78:	0b 00 34    	bra       LE, 0xd90 <.L47>
     d7a:	81 05 78    	mov.w     w1, w11
     d7c:	02 05 78    	mov.w     w2, w10
     d7e:	80 04 78    	mov.w     w0, w9
     d80:	00 04 eb    	clr.w     w8

00000d82 <.L46>:
     d82:	3a 01 be    	mov.d     [w10++], w2
     d84:	3b 00 be    	mov.d     [w11++], w0
     d86:	cf fa 07    	rcall     0x326
     d88:	80 9c be    	mov.d     w0, [w9++]
     d8a:	08 04 e8    	inc.w     w8, w8
     d8c:	88 0f 56    	sub.w     w12, w8, [w15]
     d8e:	f9 ff 3a    	bra       NZ, 0xd82 <.L46>

00000d90 <.L47>:
     d90:	4f 06 78    	mov.w     [--w15], w12
     d92:	4f 05 be    	mov.d     [--w15], w10
     d94:	4f 04 be    	mov.d     [--w15], w8
     d96:	00 00 06    	return    

00000d98 <_Copy_Matrix>:
     d98:	03 91 b9    	mul.ss    w2, w3, w2
     d9a:	02 00 e0    	cp0.w     w2
     d9c:	06 00 34    	bra       LE, 0xdaa <.L55>
     d9e:	80 01 eb    	clr.w     w3

00000da0 <.L54>:
     da0:	31 18 78    	mov.w     [w1++], [w0++]
     da2:	31 18 78    	mov.w     [w1++], [w0++]
     da4:	02 01 e9    	dec.w     w2, w2
     da6:	83 0f 51    	sub.w     w2, w3, [w15]
     da8:	fb ff 3a    	bra       NZ, 0xda0 <.L54>

00000daa <.L55>:
     daa:	00 00 06    	return    

00000dac <_Copy_Vector>:
     dac:	02 00 e0    	cp0.w     w2
     dae:	06 00 34    	bra       LE, 0xdbc <.L63>
     db0:	80 01 eb    	clr.w     w3

00000db2 <.L62>:
     db2:	31 18 78    	mov.w     [w1++], [w0++]
     db4:	31 18 78    	mov.w     [w1++], [w0++]
     db6:	02 01 e9    	dec.w     w2, w2
     db8:	83 0f 51    	sub.w     w2, w3, [w15]
     dba:	fb ff 3a    	bra       NZ, 0xdb2 <.L62>

00000dbc <.L63>:
     dbc:	00 00 06    	return    

00000dbe <_Set_Submatrix>:
     dbe:	88 1f 78    	mov.w     w8, [w15++]
     dc0:	82 03 78    	mov.w     w2, w7
     dc2:	03 04 78    	mov.w     w3, w8
     dc4:	01 a9 b9    	mul.ss    w5, w1, w2
     dc6:	02 03 43    	add.w     w6, w2, w6
     dc8:	06 03 43    	add.w     w6, w6, w6
     dca:	06 03 43    	add.w     w6, w6, w6
     dcc:	00 03 43    	add.w     w6, w0, w6
     dce:	08 00 e0    	cp0.w     w8
     dd0:	10 00 34    	bra       LE, 0xdf2 <.L74>
     dd2:	01 80 40    	add.w     w1, w1, w0
     dd4:	00 00 40    	add.w     w0, w0, w0
     dd6:	80 02 eb    	clr.w     w5

00000dd8 <.L70>:
     dd8:	04 00 e0    	cp0.w     w4
     dda:	07 00 34    	bra       LE, 0xdea <.L72>
     ddc:	86 01 78    	mov.w     w6, w3
     dde:	00 01 eb    	clr.w     w2

00000de0 <.L71>:
     de0:	b7 19 78    	mov.w     [w7++], [w3++]
     de2:	b7 19 78    	mov.w     [w7++], [w3++]
     de4:	02 01 e8    	inc.w     w2, w2
     de6:	82 0f 52    	sub.w     w4, w2, [w15]
     de8:	fb ff 3a    	bra       NZ, 0xde0 <.L71>

00000dea <.L72>:
     dea:	00 03 43    	add.w     w6, w0, w6
     dec:	85 02 e8    	inc.w     w5, w5
     dee:	85 0f 54    	sub.w     w8, w5, [w15]
     df0:	f3 ff 3a    	bra       NZ, 0xdd8 <.L70>

00000df2 <.L74>:
     df2:	4f 04 78    	mov.w     [--w15], w8
     df4:	00 00 06    	return    

00000df6 <_Join_Matrices_by_Row>:
     df6:	88 9f be    	mov.d     w8, [w15++]
     df8:	8a 9f be    	mov.d     w10, [w15++]
     dfa:	8c 9f be    	mov.d     w12, [w15++]
     dfc:	8e 1f 78    	mov.w     w14, [w15++]
     dfe:	00 04 78    	mov.w     w0, w8
     e00:	81 06 78    	mov.w     w1, w13
     e02:	04 06 78    	mov.w     w4, w12
     e04:	02 00 e0    	cp0.w     w2
     e06:	15 00 34    	bra       LE, 0xe32 <.L82>
     e08:	03 80 41    	add.w     w3, w3, w0
     e0a:	80 05 40    	add.w     w0, w0, w11
     e0c:	05 80 42    	add.w     w5, w5, w0
     e0e:	00 05 40    	add.w     w0, w0, w10
     e10:	82 04 78    	mov.w     w2, w9
     e12:	00 07 eb    	clr.w     w14

00000e14 <.L81>:
     e14:	0b 01 78    	mov.w     w11, w2
     e16:	8d 00 78    	mov.w     w13, w1
     e18:	08 00 78    	mov.w     w8, w0
     e1a:	08 fa 07    	rcall     0x22c <_memcpy>
     e1c:	0b 04 44    	add.w     w8, w11, w8
     e1e:	8b 86 46    	add.w     w13, w11, w13
     e20:	0a 01 78    	mov.w     w10, w2
     e22:	8c 00 78    	mov.w     w12, w1
     e24:	08 00 78    	mov.w     w8, w0
     e26:	02 fa 07    	rcall     0x22c <_memcpy>
     e28:	0a 04 44    	add.w     w8, w10, w8
     e2a:	0a 06 46    	add.w     w12, w10, w12
     e2c:	89 04 e9    	dec.w     w9, w9
     e2e:	8e 8f 54    	sub.w     w9, w14, [w15]
     e30:	f1 ff 3a    	bra       NZ, 0xe14 <.L81>

00000e32 <.L82>:
     e32:	4f 07 78    	mov.w     [--w15], w14
     e34:	4f 06 be    	mov.d     [--w15], w12
     e36:	4f 05 be    	mov.d     [--w15], w10
     e38:	4f 04 be    	mov.d     [--w15], w8
     e3a:	00 00 06    	return    

00000e3c <_Get_Submatrix>:
     e3c:	88 9f be    	mov.d     w8, [w15++]
     e3e:	8a 9f be    	mov.d     w10, [w15++]
     e40:	8c 9f be    	mov.d     w12, [w15++]
     e42:	00 05 78    	mov.w     w0, w10
     e44:	81 03 78    	mov.w     w1, w7
     e46:	02 01 41    	add.w     w2, w2, w2
     e48:	82 05 41    	add.w     w2, w2, w11
     e4a:	04 a8 b9    	mul.ss    w5, w4, w0
     e4c:	00 03 43    	add.w     w6, w0, w6
     e4e:	06 03 43    	add.w     w6, w6, w6
     e50:	06 03 43    	add.w     w6, w6, w6
     e52:	83 04 43    	add.w     w6, w3, w9
     e54:	07 00 e0    	cp0.w     w7
     e56:	0d 00 34    	bra       LE, 0xe72 <.L90>
     e58:	04 00 42    	add.w     w4, w4, w0
     e5a:	00 06 40    	add.w     w0, w0, w12
     e5c:	07 04 78    	mov.w     w7, w8
     e5e:	80 06 eb    	clr.w     w13

00000e60 <.L89>:
     e60:	0b 01 78    	mov.w     w11, w2
     e62:	89 00 78    	mov.w     w9, w1
     e64:	0a 00 78    	mov.w     w10, w0
     e66:	e2 f9 07    	rcall     0x22c <_memcpy>
     e68:	8c 84 44    	add.w     w9, w12, w9
     e6a:	0b 05 45    	add.w     w10, w11, w10
     e6c:	08 04 e9    	dec.w     w8, w8
     e6e:	8d 0f 54    	sub.w     w8, w13, [w15]
     e70:	f7 ff 3a    	bra       NZ, 0xe60 <.L89>

00000e72 <.L90>:
     e72:	4f 06 be    	mov.d     [--w15], w12
     e74:	4f 05 be    	mov.d     [--w15], w10
     e76:	4f 04 be    	mov.d     [--w15], w8
     e78:	00 00 06    	return    

00000e7a <_Invert_Matrix>:
     e7a:	40 00 fa    	lnk       #0x40
     e7c:	02 03 78    	mov.w     w2, w6
     e7e:	02 fc 2f    	mov.w     #0xffc0, w2
     e80:	0f 01 41    	add.w     w2, w15, w2
     e82:	f0 02 41    	add.w     w2, #0x10, w5
     e84:	02 02 78    	mov.w     w2, w4
     e86:	03 fe 2f    	mov.w     #0xffe0, w3
     e88:	8f 81 41    	add.w     w3, w15, w3
     e8a:	01 01 78    	mov.w     w1, w2
     e8c:	80 00 78    	mov.w     w0, w1
     e8e:	06 00 78    	mov.w     w6, w0
     e90:	60 fd 07    	rcall     0x952 <_MatrixInvert>
     e92:	00 80 fa    	ulnk      
     e94:	00 00 06    	return    

00000e96 <_round2nearest>:
     e96:	04 00 fa    	lnk       #0x4
     e98:	88 9f be    	mov.d     w8, [w15++]
     e9a:	8a 9f be    	mov.d     w10, [w15++]
     e9c:	8c 9f be    	mov.d     w12, [w15++]
     e9e:	00 04 be    	mov.d     w0, w8
     ea0:	a0 fa 07    	rcall     0x3e2
     ea2:	80 bf 9f    	mov.w     w0, [w15-16]
     ea4:	91 bf 9f    	mov.w     w1, [w15-14]
     ea6:	08 00 be    	mov.d     w8, w0
     ea8:	a4 fa 07    	rcall     0x3f2 <_floorf>
     eaa:	00 06 be    	mov.d     w0, w12
     eac:	08 01 be    	mov.d     w8, w2
     eae:	0f b8 97    	mov.w     [w15-16], w0
     eb0:	9f b8 97    	mov.w     [w15-14], w1
     eb2:	39 fa 07    	rcall     0x326
     eb4:	00 05 be    	mov.d     w0, w10
     eb6:	0c 01 be    	mov.d     w12, w2
     eb8:	08 00 be    	mov.d     w8, w0
     eba:	35 fa 07    	rcall     0x326
     ebc:	00 01 be    	mov.d     w0, w2
     ebe:	0a 00 be    	mov.d     w10, w0
     ec0:	a0 fa 07    	rcall     0x402
     ec2:	00 00 e0    	cp0.w     w0
     ec4:	06 00 34    	bra       LE, 0xed2 <.L103>
     ec6:	0c 00 be    	mov.d     w12, w0
     ec8:	4f 06 be    	mov.d     [--w15], w12
     eca:	4f 05 be    	mov.d     [--w15], w10
     ecc:	4f 04 be    	mov.d     [--w15], w8
     ece:	00 80 fa    	ulnk      
     ed0:	00 00 06    	return    

00000ed2 <.L103>:
     ed2:	0f b8 97    	mov.w     [w15-16], w0
     ed4:	9f b8 97    	mov.w     [w15-14], w1
     ed6:	4f 06 be    	mov.d     [--w15], w12
     ed8:	4f 05 be    	mov.d     [--w15], w10
     eda:	4f 04 be    	mov.d     [--w15], w8
     edc:	00 80 fa    	ulnk      
     ede:	00 00 06    	return    
     ee0:	f8 ff 37    	bra       0xed2 <.L103>

00000ee2 <_expm>:
     ee2:	04 00 fa    	lnk       #0x4
     ee4:	88 9f be    	mov.d     w8, [w15++]
     ee6:	8a 9f be    	mov.d     w10, [w15++]
     ee8:	8c 9f be    	mov.d     w12, [w15++]
     eea:	00 06 be    	mov.d     w0, w12
     eec:	82 bf 9f    	mov.w     w2, [w15-16]
     eee:	93 bf 9f    	mov.w     w3, [w15-14]
     ef0:	00 00 20    	mov.w     #0x0, w0
     ef2:	80 54 88    	mov.w     w0, 0xa90
     ef4:	00 f8 23    	mov.w     #0x3f80, w0
     ef6:	90 54 88    	mov.w     w0, 0xa92
     ef8:	01 68 ef    	clr.b     0x801
     efa:	00 01 eb    	clr.w     w2
     efc:	2b 84 20    	mov.w     #0x842, w11
     efe:	29 82 20    	mov.w     #0x822, w9
     f00:	2a 81 20    	mov.w     #0x812, w10
     f02:	23 80 20    	mov.w     #0x802, w3
     f04:	60 22 b8    	mul.uu    w4, #0x0, w4

00000f06 <.L107>:
     f06:	02 00 41    	add.w     w2, w2, w0
     f08:	00 00 40    	add.w     w0, w0, w0
     f0a:	00 00 40    	add.w     w0, w0, w0
     f0c:	8b 00 40    	add.w     w0, w11, w1
     f0e:	09 04 40    	add.w     w0, w9, w8
     f10:	8a 03 40    	add.w     w0, w10, w7
     f12:	03 00 40    	add.w     w0, w3, w0
     f14:	00 43 eb    	clr.b     w6

00000f16 <.L108>:
     f16:	84 98 be    	mov.d     w4, [w1++]
     f18:	04 9c be    	mov.d     w4, [w8++]
     f1a:	84 9b be    	mov.d     w4, [w7++]
     f1c:	04 98 be    	mov.d     w4, [w0++]
     f1e:	06 43 e8    	inc.b     w6, w6
     f20:	e2 4f 53    	sub.b     w6, #0x2, [w15]
     f22:	f9 ff 3a    	bra       NZ, 0xf16 <.L108>
     f24:	02 01 e8    	inc.w     w2, w2
     f26:	e2 0f 51    	sub.w     w2, #0x2, [w15]
     f28:	ee ff 3a    	bra       NZ, 0xf06 <.L107>
     f2a:	02 00 78    	mov.w     w2, w0
     f2c:	94 ea b7    	mov.b     WREG, 0xa94
     f2e:	01 68 ef    	clr.b     0x801
     f30:	80 42 eb    	clr.b     w5
     f32:	24 84 20    	mov.w     #0x842, w4
     f34:	20 82 20    	mov.w     #0x822, w0
     f36:	06 00 20    	mov.w     #0x0, w6
     f38:	07 f8 23    	mov.w     #0x3f80, w7

00000f3a <.L111>:
     f3a:	06 8a be    	mov.d     w6, [w4]
     f3c:	06 88 be    	mov.d     w6, [w0]
     f3e:	85 42 e8    	inc.b     w5, w5
     f40:	6c 02 42    	add.w     w4, #0xc, w4
     f42:	6c 00 40    	add.w     w0, #0xc, w0
     f44:	e2 cf 52    	sub.b     w5, #0x2, [w15]
     f46:	f9 ff 3a    	bra       NZ, 0xf3a <.L111>
     f48:	05 00 78    	mov.w     w5, w0
     f4a:	01 e8 b7    	mov.b     WREG, 0x801
     f4c:	25 00 20    	mov.w     #0x2, w5
     f4e:	05 02 78    	mov.w     w5, w4
     f50:	0f b9 97    	mov.w     [w15-16], w2
     f52:	9f b9 97    	mov.w     [w15-14], w3
     f54:	8d 00 78    	mov.w     w13, w1
     f56:	20 83 20    	mov.w     #0x832, w0
     f58:	dd fe 07    	rcall     0xd14 <_Multiply_Matrix_by_Scalar>
     f5a:	10 c0 b3    	mov.b     #0x1, w0
     f5c:	00 e8 b7    	mov.b     WREG, 0x800

00000f5e <.L113>:
     f5e:	00 80 fb    	ze        w0, w0
     f60:	cf 80 de    	asr.w     w0, #0xf, w1
     f62:	51 fa 07    	rcall     0x406
     f64:	82 54 80    	mov.w     0xa90, w2
     f66:	93 54 80    	mov.w     0xa92, w3
     f68:	aa f9 07    	rcall     0x2be <___mulsf3>
     f6a:	80 54 88    	mov.w     w0, 0xa90
     f6c:	91 54 88    	mov.w     w1, 0xa92
     f6e:	25 00 20    	mov.w     #0x2, w5
     f70:	24 82 20    	mov.w     #0x822, w4
     f72:	85 01 78    	mov.w     w5, w3
     f74:	05 01 78    	mov.w     w5, w2
     f76:	21 83 20    	mov.w     #0x832, w1
     f78:	20 81 20    	mov.w     #0x812, w0
     f7a:	88 fe 07    	rcall     0xc8c <_Multiply_Matrices>
     f7c:	01 68 ef    	clr.b     0x801
     f7e:	00 04 eb    	clr.w     w8

00000f80 <.L114>:
     f80:	08 00 44    	add.w     w8, w8, w0
     f82:	00 00 40    	add.w     w0, w0, w0
     f84:	00 00 40    	add.w     w0, w0, w0
     f86:	0a 01 40    	add.w     w0, w10, w2
     f88:	09 00 40    	add.w     w0, w9, w0
     f8a:	80 40 eb    	clr.b     w1

00000f8c <.L115>:
     f8c:	32 18 78    	mov.w     [w2++], [w0++]
     f8e:	32 18 78    	mov.w     [w2++], [w0++]
     f90:	81 40 e8    	inc.b     w1, w1
     f92:	e2 cf 50    	sub.b     w1, #0x2, [w15]
     f94:	fb ff 3a    	bra       NZ, 0xf8c <.L115>
     f96:	08 04 e8    	inc.w     w8, w8
     f98:	e2 0f 54    	sub.w     w8, #0x2, [w15]
     f9a:	f2 ff 3a    	bra       NZ, 0xf80 <.L114>
     f9c:	00 04 fd    	exch      w0, w8
     f9e:	94 ea b7    	mov.b     WREG, 0xa94
     fa0:	01 e8 b7    	mov.b     WREG, 0x801
     fa2:	00 04 fd    	exch      w0, w8
     fa4:	82 54 80    	mov.w     0xa90, w2
     fa6:	93 54 80    	mov.w     0xa92, w3
     fa8:	00 00 20    	mov.w     #0x0, w0
     faa:	01 f8 23    	mov.w     #0x3f80, w1
     fac:	57 fa 07    	rcall     0x45c
     fae:	00 01 be    	mov.d     w0, w2
     fb0:	88 02 78    	mov.w     w8, w5
     fb2:	08 02 78    	mov.w     w8, w4
     fb4:	21 81 20    	mov.w     #0x812, w1
     fb6:	20 80 20    	mov.w     #0x802, w0
     fb8:	ad fe 07    	rcall     0xd14 <_Multiply_Matrix_by_Scalar>
     fba:	08 02 78    	mov.w     w8, w4
     fbc:	88 01 78    	mov.w     w8, w3
     fbe:	22 80 20    	mov.w     #0x802, w2
     fc0:	21 84 20    	mov.w     #0x842, w1
     fc2:	01 00 78    	mov.w     w1, w0
     fc4:	bd fe 07    	rcall     0xd40 <_Add_Matrices>
     fc6:	00 48 ec    	inc.b     0x800, WREG
     fc8:	00 e8 b7    	mov.b     WREG, 0x800
     fca:	e9 4f 50    	sub.b     w0, #0x9, [w15]
     fcc:	c8 ff 36    	bra       LEU, 0xf5e <.L113>
     fce:	01 68 ef    	clr.b     0x801
     fd0:	0c 00 78    	mov.w     w12, w0
     fd2:	80 40 eb    	clr.b     w1
     fd4:	22 84 20    	mov.w     #0x842, w2

00000fd6 <.L119>:
     fd6:	32 18 78    	mov.w     [w2++], [w0++]
     fd8:	32 18 78    	mov.w     [w2++], [w0++]
     fda:	81 40 e8    	inc.b     w1, w1
     fdc:	e4 cf 50    	sub.b     w1, #0x4, [w15]
     fde:	fb ff 3a    	bra       NZ, 0xfd6 <.L119>
     fe0:	01 00 78    	mov.w     w1, w0
     fe2:	01 e8 b7    	mov.b     WREG, 0x801
     fe4:	4f 06 be    	mov.d     [--w15], w12
     fe6:	4f 05 be    	mov.d     [--w15], w10
     fe8:	4f 04 be    	mov.d     [--w15], w8
     fea:	00 80 fa    	ulnk      
     fec:	00 00 06    	return    

00000fee <_c2d>:
     fee:	e6 87 47    	add.w     w15, #0x6, w15
     ff0:	88 9f be    	mov.d     w8, [w15++]
     ff2:	8a 9f be    	mov.d     w10, [w15++]
     ff4:	8c 9f be    	mov.d     w12, [w15++]
     ff6:	8e 1f 78    	mov.w     w14, [w15++]
     ff8:	80 06 78    	mov.w     w0, w13
     ffa:	01 07 78    	mov.w     w1, w14
     ffc:	02 00 78    	mov.w     w2, w0
     ffe:	f4 b7 9f    	mov.w     w4, [w15-18]
    1000:	85 bf 9f    	mov.w     w5, [w15-16]
    1002:	15 00 20    	mov.w     #0x1, w5
    1004:	03 02 78    	mov.w     w3, w4
    1006:	23 00 20    	mov.w     #0x2, w3
    1008:	03 01 78    	mov.w     w3, w2
    100a:	80 00 78    	mov.w     w0, w1
    100c:	80 90 20    	mov.w     #0x908, w0
    100e:	f3 fe 07    	rcall     0xdf6 <_Join_Matrices_by_Row>
    1010:	00 00 20    	mov.w     #0x0, w0
    1012:	b0 54 88    	mov.w     w0, 0xa96
    1014:	00 f8 23    	mov.w     #0x3f80, w0
    1016:	c0 54 88    	mov.w     w0, 0xa98
    1018:	53 68 ef    	clr.b     0x853
    101a:	00 04 eb    	clr.w     w8
    101c:	4c 8e 20    	mov.w     #0x8e4, w12
    101e:	ca 89 20    	mov.w     #0x89c, w10
    1020:	89 87 20    	mov.w     #0x878, w9
    1022:	4b 85 20    	mov.w     #0x854, w11
    1024:	60 00 b8    	mul.uu    w0, #0x0, w0
    1026:	88 03 78    	mov.w     w8, w7

00001028 <.L139>:
    1028:	0c 83 43    	add.w     w7, w12, w6
    102a:	8a 82 43    	add.w     w7, w10, w5
    102c:	09 82 43    	add.w     w7, w9, w4
    102e:	8b 81 43    	add.w     w7, w11, w3
    1030:	00 41 eb    	clr.b     w2

00001032 <.L140>:
    1032:	00 9b be    	mov.d     w0, [w6++]
    1034:	80 9a be    	mov.d     w0, [w5++]
    1036:	00 9a be    	mov.d     w0, [w4++]
    1038:	80 99 be    	mov.d     w0, [w3++]
    103a:	02 41 e8    	inc.b     w2, w2
    103c:	e3 4f 51    	sub.b     w2, #0x3, [w15]
    103e:	f9 ff 3a    	bra       NZ, 0x1032 <.L140>
    1040:	08 04 e8    	inc.w     w8, w8
    1042:	ec 83 43    	add.w     w7, #0xc, w7
    1044:	e3 0f 54    	sub.w     w8, #0x3, [w15]
    1046:	f0 ff 3a    	bra       NZ, 0x1028 <.L139>
    1048:	08 00 78    	mov.w     w8, w0
    104a:	9a ea b7    	mov.b     WREG, 0xa9a
    104c:	53 68 ef    	clr.b     0x853
    104e:	00 42 eb    	clr.b     w4
    1050:	41 8e 20    	mov.w     #0x8e4, w1
    1052:	c0 89 20    	mov.w     #0x89c, w0
    1054:	02 00 20    	mov.w     #0x0, w2
    1056:	03 f8 23    	mov.w     #0x3f80, w3

00001058 <.L143>:
    1058:	82 88 be    	mov.d     w2, [w1]
    105a:	02 88 be    	mov.d     w2, [w0]
    105c:	04 42 e8    	inc.b     w4, w4
    105e:	f0 80 40    	add.w     w1, #0x10, w1
    1060:	70 00 40    	add.w     w0, #0x10, w0
    1062:	e3 4f 52    	sub.b     w4, #0x3, [w15]
    1064:	f9 ff 3a    	bra       NZ, 0x1058 <.L143>
    1066:	04 00 78    	mov.w     w4, w0
    1068:	53 e8 b7    	mov.b     WREG, 0x853
    106a:	35 00 20    	mov.w     #0x3, w5
    106c:	05 02 78    	mov.w     w5, w4
    106e:	7f b1 97    	mov.w     [w15-18], w2
    1070:	8f b9 97    	mov.w     [w15-16], w3
    1072:	81 90 20    	mov.w     #0x908, w1
    1074:	00 8c 20    	mov.w     #0x8c0, w0
    1076:	4e fe 07    	rcall     0xd14 <_Multiply_Matrix_by_Scalar>
    1078:	10 c0 b3    	mov.b     #0x1, w0
    107a:	52 e8 b7    	mov.b     WREG, 0x852

0000107c <.L145>:
    107c:	00 80 fb    	ze        w0, w0
    107e:	cf 80 de    	asr.w     w0, #0xf, w1
    1080:	c2 f9 07    	rcall     0x406
    1082:	b2 54 80    	mov.w     0xa96, w2
    1084:	c3 54 80    	mov.w     0xa98, w3
    1086:	1b f9 07    	rcall     0x2be <___mulsf3>
    1088:	b0 54 88    	mov.w     w0, 0xa96
    108a:	c1 54 88    	mov.w     w1, 0xa98
    108c:	35 00 20    	mov.w     #0x3, w5
    108e:	c4 89 20    	mov.w     #0x89c, w4
    1090:	85 01 78    	mov.w     w5, w3
    1092:	05 01 78    	mov.w     w5, w2
    1094:	01 8c 20    	mov.w     #0x8c0, w1
    1096:	80 87 20    	mov.w     #0x878, w0
    1098:	f9 fd 07    	rcall     0xc8c <_Multiply_Matrices>
    109a:	53 68 ef    	clr.b     0x853
    109c:	00 04 eb    	clr.w     w8
    109e:	88 01 78    	mov.w     w8, w3

000010a0 <.L146>:
    10a0:	09 81 41    	add.w     w3, w9, w2
    10a2:	8a 80 41    	add.w     w3, w10, w1
    10a4:	00 40 eb    	clr.b     w0

000010a6 <.L147>:
    10a6:	b2 18 78    	mov.w     [w2++], [w1++]
    10a8:	b2 18 78    	mov.w     [w2++], [w1++]
    10aa:	00 40 e8    	inc.b     w0, w0
    10ac:	e3 4f 50    	sub.b     w0, #0x3, [w15]
    10ae:	fb ff 3a    	bra       NZ, 0x10a6 <.L147>
    10b0:	08 04 e8    	inc.w     w8, w8
    10b2:	ec 81 41    	add.w     w3, #0xc, w3
    10b4:	e3 0f 54    	sub.w     w8, #0x3, [w15]
    10b6:	f4 ff 3a    	bra       NZ, 0x10a0 <.L146>
    10b8:	00 04 fd    	exch      w0, w8
    10ba:	9a ea b7    	mov.b     WREG, 0xa9a
    10bc:	53 e8 b7    	mov.b     WREG, 0x853
    10be:	00 04 fd    	exch      w0, w8
    10c0:	b2 54 80    	mov.w     0xa96, w2
    10c2:	c3 54 80    	mov.w     0xa98, w3
    10c4:	00 00 20    	mov.w     #0x0, w0
    10c6:	01 f8 23    	mov.w     #0x3f80, w1
    10c8:	c9 f9 07    	rcall     0x45c
    10ca:	00 01 be    	mov.d     w0, w2
    10cc:	88 02 78    	mov.w     w8, w5
    10ce:	08 02 78    	mov.w     w8, w4
    10d0:	81 87 20    	mov.w     #0x878, w1
    10d2:	40 85 20    	mov.w     #0x854, w0
    10d4:	1f fe 07    	rcall     0xd14 <_Multiply_Matrix_by_Scalar>
    10d6:	08 02 78    	mov.w     w8, w4
    10d8:	88 01 78    	mov.w     w8, w3
    10da:	42 85 20    	mov.w     #0x854, w2
    10dc:	41 8e 20    	mov.w     #0x8e4, w1
    10de:	01 00 78    	mov.w     w1, w0
    10e0:	2f fe 07    	rcall     0xd40 <_Add_Matrices>
    10e2:	52 48 ec    	inc.b     0x852, WREG
    10e4:	52 e8 b7    	mov.b     WREG, 0x852
    10e6:	e9 4f 50    	sub.b     w0, #0x9, [w15]
    10e8:	c9 ff 36    	bra       LEU, 0x107c <.L145>
    10ea:	00 03 eb    	clr.w     w6
    10ec:	86 02 78    	mov.w     w6, w5
    10ee:	08 02 78    	mov.w     w8, w4
    10f0:	43 8e 20    	mov.w     #0x8e4, w3
    10f2:	22 00 20    	mov.w     #0x2, w2
    10f4:	82 00 78    	mov.w     w2, w1
    10f6:	0d 00 78    	mov.w     w13, w0
    10f8:	a1 fe 07    	rcall     0xe3c <_Get_Submatrix>
    10fa:	26 00 20    	mov.w     #0x2, w6
    10fc:	80 02 eb    	clr.w     w5
    10fe:	08 02 78    	mov.w     w8, w4
    1100:	43 8e 20    	mov.w     #0x8e4, w3
    1102:	12 00 20    	mov.w     #0x1, w2
    1104:	86 00 78    	mov.w     w6, w1
    1106:	0e 00 78    	mov.w     w14, w0
    1108:	99 fe 07    	rcall     0xe3c <_Get_Submatrix>
    110a:	4f 07 78    	mov.w     [--w15], w14
    110c:	4f 06 be    	mov.d     [--w15], w12
    110e:	4f 05 be    	mov.d     [--w15], w10
    1110:	4f 04 be    	mov.d     [--w15], w8
    1112:	6f 00 b1    	sub.w     #0x6, w15
    1114:	00 00 06    	return    

00001116 <_Delay_Us>:
    1116:	00 00 e8    	inc.w     w0, w0
    1118:	70 54 88    	mov.w     w0, 0xa8e

0000111a <outer1>:
    111a:	8e 2a ed    	dec.w     0xa8e
    111c:	8e 0a e2    	cp0.w     0xa8e
    111e:	05 00 32    	bra       Z, 0x112a <done1>
    1120:	dc 05 08    	do        #0x5dc, 0x1126 <inner1>
    1122:	01 00 00 
    1124:	00 00 00    	nop       

00001126 <inner1>:
    1126:	00 00 00    	nop       
    1128:	f8 ff 37    	bra       0x111a <outer1>

0000112a <done1>:
    112a:	00 00 06    	return    

0000112c <_Delay>:
    112c:	00 00 e8    	inc.w     w0, w0
    112e:	70 54 88    	mov.w     w0, 0xa8e

00001130 <outer>:
    1130:	8e 2a ed    	dec.w     0xa8e
    1132:	8e 0a e2    	cp0.w     0xa8e
    1134:	05 00 32    	bra       Z, 0x1140 <done>
    1136:	80 0c 08    	do        #0xc80, 0x113c <inner>
    1138:	01 00 00 
    113a:	00 00 00    	nop       

0000113c <inner>:
    113c:	00 00 00    	nop       
    113e:	f8 ff 37    	bra       0x1130 <outer>

00001140 <done>:
    1140:	00 00 06    	return    

00001142 <_next>:
    1142:	e6 54 80    	mov.w     0xa9c, w6
    1144:	f7 54 80    	mov.w     0xa9e, w7
    1146:	10 24 2e    	mov.w     #0xe241, w0
    1148:	00 31 b8    	mul.uu    w6, w0, w2
    114a:	03 02 43    	add.w     w6, w3, w4
    114c:	00 b8 b9    	mul.ss    w7, w0, w0
    114e:	80 01 42    	add.w     w4, w0, w3
    1150:	02 03 be    	mov.d     w2, w6
    1152:	16 06 b0    	add.w     #0x61, w6
    1154:	07 80 b0    	addc.w    #0x0, w7
    1156:	e6 54 88    	mov.w     w6, 0xa9c
    1158:	f7 54 88    	mov.w     w7, 0xa9e
    115a:	e0 0f 53    	sub.w     w6, #0x0, [w15]
    115c:	e0 8f 5b    	subb.w    w7, #0x0, [w15]
    115e:	02 00 35    	bra       LT, 0x1164 <.L179>
    1160:	06 00 be    	mov.d     w6, w0
    1162:	00 00 06    	return    

00001164 <.L179>:
    1164:	60 03 13    	subr.w    w6, #0x0, w6
    1166:	e0 83 1b    	subbr.w   w7, #0x0, w7
    1168:	e6 54 88    	mov.w     w6, 0xa9c
    116a:	f7 54 88    	mov.w     w7, 0xa9e
    116c:	06 00 be    	mov.d     w6, w0
    116e:	00 00 06    	return    
    1170:	f9 ff 37    	bra       0x1164 <.L179>

00001172 <_rnd_floating>:
    1172:	e7 ff 07    	rcall     0x1142 <_next>
    1174:	02 24 24    	mov.w     #0x4240, w2
    1176:	f3 00 20    	mov.w     #0xf, w3
    1178:	b3 f9 07    	rcall     0x4e0 <___modsi3>
    117a:	45 f9 07    	rcall     0x406
    117c:	02 40 22    	mov.w     #0x2400, w2
    117e:	43 97 24    	mov.w     #0x4974, w3
    1180:	6d f9 37    	bra       0x45c

00001182 <_SoftwareReset>:
    1182:	2f b4 20    	mov.w     #0xb42, w15
    1184:	00 ff 27    	mov.w     #0x7ff0, w0
    1186:	00 01 88    	mov.w     w0, 0x20
    1188:	00 00 00    	nop       
    118a:	00 00 06    	return    

0000118c <_continuous2discrete_poles>:
    118c:	88 9f be    	mov.d     w8, [w15++]
    118e:	8a 9f be    	mov.d     w10, [w15++]
    1190:	8c 9f be    	mov.d     w12, [w15++]
    1192:	80 06 78    	mov.w     w0, w13
    1194:	01 06 78    	mov.w     w1, w12
    1196:	02 04 be    	mov.d     w2, w8
    1198:	11 00 be    	mov.d     [w1], w0
    119a:	91 f8 07    	rcall     0x2be <___mulsf3>
    119c:	b0 f9 07    	rcall     0x4fe <_expf>
    119e:	00 05 be    	mov.d     w0, w10
    11a0:	2c 01 90    	mov.w     [w12+4], w2
    11a2:	bc 01 90    	mov.w     [w12+6], w3
    11a4:	08 00 be    	mov.d     w8, w0
    11a6:	8b f8 07    	rcall     0x2be <___mulsf3>
    11a8:	0c fa 07    	rcall     0x5c2 <_cosf>
    11aa:	00 01 be    	mov.d     w0, w2
    11ac:	0a 00 be    	mov.d     w10, w0
    11ae:	87 f8 07    	rcall     0x2be <___mulsf3>
    11b0:	80 8e be    	mov.d     w0, [w13]
    11b2:	1c 01 be    	mov.d     [w12], w2
    11b4:	08 00 be    	mov.d     w8, w0
    11b6:	83 f8 07    	rcall     0x2be <___mulsf3>
    11b8:	a2 f9 07    	rcall     0x4fe <_expf>
    11ba:	00 05 be    	mov.d     w0, w10
    11bc:	2c 01 90    	mov.w     [w12+4], w2
    11be:	bc 01 90    	mov.w     [w12+6], w3
    11c0:	08 00 be    	mov.d     w8, w0
    11c2:	7d f8 07    	rcall     0x2be <___mulsf3>
    11c4:	00 fa 07    	rcall     0x5c6 <_sinf>
    11c6:	00 01 be    	mov.d     w0, w2
    11c8:	0a 00 be    	mov.d     w10, w0
    11ca:	79 f8 07    	rcall     0x2be <___mulsf3>
    11cc:	a0 06 98    	mov.w     w0, [w13+4]
    11ce:	b1 06 98    	mov.w     w1, [w13+6]
    11d0:	e8 86 46    	add.w     w13, #0x8, w13
    11d2:	68 06 46    	add.w     w12, #0x8, w12
    11d4:	1c 01 be    	mov.d     [w12], w2
    11d6:	08 00 be    	mov.d     w8, w0
    11d8:	72 f8 07    	rcall     0x2be <___mulsf3>
    11da:	91 f9 07    	rcall     0x4fe <_expf>
    11dc:	00 05 be    	mov.d     w0, w10
    11de:	2c 01 90    	mov.w     [w12+4], w2
    11e0:	bc 01 90    	mov.w     [w12+6], w3
    11e2:	08 00 be    	mov.d     w8, w0
    11e4:	6c f8 07    	rcall     0x2be <___mulsf3>
    11e6:	ed f9 07    	rcall     0x5c2 <_cosf>
    11e8:	00 01 be    	mov.d     w0, w2
    11ea:	0a 00 be    	mov.d     w10, w0
    11ec:	68 f8 07    	rcall     0x2be <___mulsf3>
    11ee:	80 8e be    	mov.d     w0, [w13]
    11f0:	1c 01 be    	mov.d     [w12], w2
    11f2:	08 00 be    	mov.d     w8, w0
    11f4:	64 f8 07    	rcall     0x2be <___mulsf3>
    11f6:	83 f9 07    	rcall     0x4fe <_expf>
    11f8:	00 05 be    	mov.d     w0, w10
    11fa:	2c 01 90    	mov.w     [w12+4], w2
    11fc:	bc 01 90    	mov.w     [w12+6], w3
    11fe:	08 00 be    	mov.d     w8, w0
    1200:	5e f8 07    	rcall     0x2be <___mulsf3>
    1202:	e1 f9 07    	rcall     0x5c6 <_sinf>
    1204:	00 01 be    	mov.d     w0, w2
    1206:	0a 00 be    	mov.d     w10, w0
    1208:	5a f8 07    	rcall     0x2be <___mulsf3>
    120a:	a0 06 98    	mov.w     w0, [w13+4]
    120c:	b1 06 98    	mov.w     w1, [w13+6]
    120e:	4f 06 be    	mov.d     [--w15], w12
    1210:	4f 05 be    	mov.d     [--w15], w10
    1212:	4f 04 be    	mov.d     [--w15], w8
    1214:	00 00 06    	return    

00001216 <_acker>:
    1216:	88 9f be    	mov.d     w8, [w15++]
    1218:	8a 9f be    	mov.d     w10, [w15++]
    121a:	8c 9f be    	mov.d     w12, [w15++]
    121c:	8e 1f 78    	mov.w     w14, [w15++]
    121e:	00 07 78    	mov.w     w0, w14
    1220:	01 06 78    	mov.w     w1, w12
    1222:	02 05 78    	mov.w     w2, w10
    1224:	83 04 78    	mov.w     w3, w9
    1226:	15 00 20    	mov.w     #0x1, w5
    1228:	02 02 78    	mov.w     w2, w4
    122a:	23 00 20    	mov.w     #0x2, w3
    122c:	03 01 78    	mov.w     w3, w2
    122e:	40 98 20    	mov.w     #0x984, w0
    1230:	2d fd 07    	rcall     0xc8c <_Multiply_Matrices>
    1232:	c8 99 20    	mov.w     #0x99c, w8
    1234:	25 00 20    	mov.w     #0x2, w5
    1236:	44 98 20    	mov.w     #0x984, w4
    1238:	13 00 20    	mov.w     #0x1, w3
    123a:	05 01 78    	mov.w     w5, w2
    123c:	8a 00 78    	mov.w     w10, w1
    123e:	08 00 78    	mov.w     w8, w0
    1240:	da fd 07    	rcall     0xdf6 <_Join_Matrices_by_Row>
    1242:	cd 98 20    	mov.w     #0x98c, w13
    1244:	22 00 20    	mov.w     #0x2, w2
    1246:	88 00 78    	mov.w     w8, w1
    1248:	0d 00 78    	mov.w     w13, w0
    124a:	17 fe 07    	rcall     0xe7a <_Invert_Matrix>
    124c:	68 84 44    	add.w     w9, #0x8, w8
    124e:	18 01 be    	mov.d     [w8], w2
    1250:	19 00 be    	mov.d     [w9], w0
    1252:	6a f8 07    	rcall     0x328
    1254:	01 f0 a2    	btg.w     w1, #0xf
    1256:	20 55 88    	mov.w     w0, 0xaa4
    1258:	31 55 88    	mov.w     w1, 0xaa6
    125a:	18 01 be    	mov.d     [w8], w2
    125c:	19 00 be    	mov.d     [w9], w0
    125e:	2f f8 07    	rcall     0x2be <___mulsf3>
    1260:	00 05 be    	mov.d     w0, w10
    1262:	29 00 90    	mov.w     [w9+4], w0
    1264:	b9 00 90    	mov.w     [w9+6], w1
    1266:	28 01 90    	mov.w     [w8+4], w2
    1268:	b8 01 90    	mov.w     [w8+6], w3
    126a:	29 f8 07    	rcall     0x2be <___mulsf3>
    126c:	00 01 be    	mov.d     w0, w2
    126e:	0a 00 be    	mov.d     w10, w0
    1270:	5a f8 07    	rcall     0x326
    1272:	00 55 88    	mov.w     w0, 0xaa0
    1274:	11 55 88    	mov.w     w1, 0xaa2
    1276:	4b 97 20    	mov.w     #0x974, w11
    1278:	25 00 20    	mov.w     #0x2, w5
    127a:	0c 02 78    	mov.w     w12, w4
    127c:	85 01 78    	mov.w     w5, w3
    127e:	05 01 78    	mov.w     w5, w2
    1280:	8c 00 78    	mov.w     w12, w1
    1282:	0b 00 78    	mov.w     w11, w0
    1284:	03 fd 07    	rcall     0xc8c <_Multiply_Matrices>
    1286:	49 96 20    	mov.w     #0x964, w9
    1288:	25 00 20    	mov.w     #0x2, w5
    128a:	05 02 78    	mov.w     w5, w4
    128c:	22 55 80    	mov.w     0xaa4, w2
    128e:	33 55 80    	mov.w     0xaa6, w3
    1290:	8c 00 78    	mov.w     w12, w1
    1292:	09 00 78    	mov.w     w9, w0
    1294:	3f fd 07    	rcall     0xd14 <_Multiply_Matrix_by_Scalar>
    1296:	4a 95 20    	mov.w     #0x954, w10
    1298:	25 00 20    	mov.w     #0x2, w5
    129a:	05 02 78    	mov.w     w5, w4
    129c:	02 55 80    	mov.w     0xaa0, w2
    129e:	13 55 80    	mov.w     0xaa2, w3
    12a0:	81 aa 20    	mov.w     #0xaa8, w1
    12a2:	0a 00 78    	mov.w     w10, w0
    12a4:	37 fd 07    	rcall     0xd14 <_Multiply_Matrix_by_Scalar>
    12a6:	c8 93 20    	mov.w     #0x93c, w8
    12a8:	24 00 20    	mov.w     #0x2, w4
    12aa:	84 01 78    	mov.w     w4, w3
    12ac:	09 01 78    	mov.w     w9, w2
    12ae:	8b 00 78    	mov.w     w11, w1
    12b0:	08 00 78    	mov.w     w8, w0
    12b2:	46 fd 07    	rcall     0xd40 <_Add_Matrices>
    12b4:	c9 92 20    	mov.w     #0x92c, w9
    12b6:	24 00 20    	mov.w     #0x2, w4
    12b8:	84 01 78    	mov.w     w4, w3
    12ba:	0a 01 78    	mov.w     w10, w2
    12bc:	88 00 78    	mov.w     w8, w1
    12be:	09 00 78    	mov.w     w9, w0
    12c0:	3f fd 07    	rcall     0xd40 <_Add_Matrices>
    12c2:	25 00 20    	mov.w     #0x2, w5
    12c4:	0d 02 78    	mov.w     w13, w4
    12c6:	85 01 78    	mov.w     w5, w3
    12c8:	12 00 20    	mov.w     #0x1, w2
    12ca:	81 ab 20    	mov.w     #0xab8, w1
    12cc:	c0 94 20    	mov.w     #0x94c, w0
    12ce:	de fc 07    	rcall     0xc8c <_Multiply_Matrices>
    12d0:	25 00 20    	mov.w     #0x2, w5
    12d2:	09 02 78    	mov.w     w9, w4
    12d4:	85 01 78    	mov.w     w5, w3
    12d6:	12 00 20    	mov.w     #0x1, w2
    12d8:	c1 94 20    	mov.w     #0x94c, w1
    12da:	0e 00 78    	mov.w     w14, w0
    12dc:	d7 fc 07    	rcall     0xc8c <_Multiply_Matrices>
    12de:	4f 07 78    	mov.w     [--w15], w14
    12e0:	4f 06 be    	mov.d     [--w15], w12
    12e2:	4f 05 be    	mov.d     [--w15], w10
    12e4:	4f 04 be    	mov.d     [--w15], w8
    12e6:	00 00 06    	return    

000012e8 <_subs>:
    12e8:	04 00 fa    	lnk       #0x4
    12ea:	88 9f be    	mov.d     w8, [w15++]
    12ec:	8a 9f be    	mov.d     w10, [w15++]
    12ee:	8c 9f be    	mov.d     w12, [w15++]
    12f0:	00 05 be    	mov.d     w0, w10
    12f2:	02 04 be    	mov.d     w2, w8
    12f4:	0c 00 20    	mov.w     #0x0, w12
    12f6:	0d f8 23    	mov.w     #0x3f80, w13
    12f8:	0c 88 be    	mov.d     w12, [w0]
    12fa:	32 31 28    	mov.w     #0x8313, w2
    12fc:	03 d4 2b    	mov.w     #0xbd40, w3
    12fe:	08 00 be    	mov.d     w8, w0
    1300:	ad f8 07    	rcall     0x45c
    1302:	80 bf 9f    	mov.w     w0, [w15-16]
    1304:	91 bf 9f    	mov.w     w1, [w15-14]
    1306:	20 05 98    	mov.w     w0, [w10+4]
    1308:	31 05 98    	mov.w     w1, [w10+6]
    130a:	60 00 b8    	mul.uu    w0, #0x0, w0
    130c:	40 05 98    	mov.w     w0, [w10+8]
    130e:	51 05 98    	mov.w     w1, [w10+10]
    1310:	6c 05 98    	mov.w     w12, [w10+12]
    1312:	7d 05 98    	mov.w     w13, [w10+14]
    1314:	52 8c 25    	mov.w     #0x58c5, w2
    1316:	23 36 24    	mov.w     #0x4362, w3
    1318:	08 00 be    	mov.d     w8, w0
    131a:	d1 f7 07    	rcall     0x2be <___mulsf3>
    131c:	00 01 be    	mov.d     w0, w2
    131e:	08 00 be    	mov.d     w8, w0
    1320:	ce f7 07    	rcall     0x2be <___mulsf3>
    1322:	80 8d be    	mov.d     w0, [w11]
    1324:	0f b8 97    	mov.w     [w15-16], w0
    1326:	9f b8 97    	mov.w     [w15-14], w1
    1328:	a0 05 98    	mov.w     w0, [w11+4]
    132a:	b1 05 98    	mov.w     w1, [w11+6]
    132c:	4f 06 be    	mov.d     [--w15], w12
    132e:	4f 05 be    	mov.d     [--w15], w10
    1330:	4f 04 be    	mov.d     [--w15], w8
    1332:	00 80 fa    	ulnk      
    1334:	00 00 06    	return    

00001336 <_delay_in_ms>:
    1336:	00 00 e0    	cp0.w     w0
    1338:	09 00 32    	bra       Z, 0x134c <.L208>
    133a:	80 01 eb    	clr.w     w3
    133c:	b2 6e 22    	mov.w     #0x26eb, w2

0000133e <.L205>:
    133e:	80 00 eb    	clr.w     w1

00001340 <.L206>:
    1340:	81 00 e8    	inc.w     w1, w1
    1342:	82 8f 50    	sub.w     w1, w2, [w15]
    1344:	fd ff 3a    	bra       NZ, 0x1340 <.L206>
    1346:	83 01 e8    	inc.w     w3, w3
    1348:	83 0f 50    	sub.w     w0, w3, [w15]
    134a:	f9 ff 3a    	bra       NZ, 0x133e <.L205>

0000134c <.L208>:
    134c:	00 00 06    	return    

0000134e <_reset_buffers>:
    134e:	80 00 eb    	clr.w     w1
    1350:	e0 9f 20    	mov.w     #0x9fe, w0
    1352:	e2 9a 20    	mov.w     #0x9ae, w2
    1354:	03 05 20    	mov.w     #0x50, w3

00001356 <.L215>:
    1356:	00 48 eb    	clr.b     [w0]
    1358:	30 59 78    	mov.b     [w0++], [w2++]
    135a:	81 00 e8    	inc.w     w1, w1
    135c:	83 8f 50    	sub.w     w1, w3, [w15]
    135e:	fb ff 3a    	bra       NZ, 0x1356 <.L215>
    1360:	7c 6a ef    	clr.b     0xa7c
    1362:	7b 6a ef    	clr.b     0xa7b
    1364:	7a 6a ef    	clr.b     0xa7a
    1366:	79 6a ef    	clr.b     0xa79
    1368:	78 6a ef    	clr.b     0xa78
    136a:	77 6a ef    	clr.b     0xa77
    136c:	76 6a ef    	clr.b     0xa76
    136e:	75 6a ef    	clr.b     0xa75
    1370:	74 6a ef    	clr.b     0xa74
    1372:	73 6a ef    	clr.b     0xa73
    1374:	72 6a ef    	clr.b     0xa72
    1376:	71 6a ef    	clr.b     0xa71
    1378:	70 6a ef    	clr.b     0xa70
    137a:	6f 6a ef    	clr.b     0xa6f
    137c:	6e 6a ef    	clr.b     0xa6e
    137e:	6d 6a ef    	clr.b     0xa6d
    1380:	6c 6a ef    	clr.b     0xa6c
    1382:	6b 6a ef    	clr.b     0xa6b
    1384:	6a 6a ef    	clr.b     0xa6a
    1386:	69 6a ef    	clr.b     0xa69
    1388:	68 6a ef    	clr.b     0xa68
    138a:	67 6a ef    	clr.b     0xa67
    138c:	66 6a ef    	clr.b     0xa66
    138e:	65 6a ef    	clr.b     0xa65
    1390:	54 2a ef    	clr.w     0xa54
    1392:	5f 6a ef    	clr.b     0xa5f
    1394:	62 6a ef    	clr.b     0xa62
    1396:	00 00 06    	return    

00001398 <_read_sensor_frame>:
    1398:	88 9f be    	mov.d     w8, [w15++]
    139a:	8a 1f 78    	mov.w     w10, [w15++]
    139c:	80 04 78    	mov.w     w0, w9
    139e:	01 45 78    	mov.b     w1, w10
    13a0:	5c 2a ef    	clr.w     0xa5c
    13a2:	01 04 e0    	cp0.b     w1
    13a4:	03 00 32    	bra       Z, 0x13ac <.L223>
    13a6:	e0 52 80    	mov.w     0xa5c, w0
    13a8:	00 00 e0    	cp0.w     w0
    13aa:	05 00 32    	bra       Z, 0x13b6 <.L246>

000013ac <.L223>:
    13ac:	e0 52 80    	mov.w     0xa5c, w0
    13ae:	00 00 fb    	se        w0, w0
    13b0:	4f 05 78    	mov.w     [--w15], w10
    13b2:	4f 04 be    	mov.d     [--w15], w8
    13b4:	00 00 06    	return    

000013b6 <.L246>:
    13b6:	00 44 78    	mov.b     w0, w8

000013b8 <.L244>:
    13b8:	00 01 eb    	clr.w     w2
    13ba:	01 01 20    	mov.w     #0x10, w1
    13bc:	80 00 20    	mov.w     #0x8, w0
    13be:	4a 0e 07    	rcall     0x3054 <_EE_alarm_SetRelAlarm>

000013c0 <.L229>:
    13c0:	85 c0 bf    	mov.b     0x85, WREG
    13c2:	00 38 a3    	btst.z    w0, #0x3
    13c4:	02 00 3a    	bra       NZ, 0x13ca <.L230>
    13c6:	5c 0a e2    	cp0.w     0xa5c
    13c8:	fb ff 32    	bra       Z, 0x13c0 <.L229>

000013ca <.L230>:
    13ca:	08 80 fb    	ze        w8, w0
    13cc:	09 00 40    	add.w     w0, w9, w0
    13ce:	11 0c 07    	rcall     0x2bf2 <_Serial_Receive>
    13d0:	85 60 a9    	bclr.b    0x85, #0x3
    13d2:	5c 0a e2    	cp0.w     0xa5c
    13d4:	11 00 32    	bra       Z, 0x13f8 <.L247>

000013d6 <.L232>:
    13d6:	08 44 e8    	inc.b     w8, w8
    13d8:	88 4f 55    	sub.b     w10, w8, [w15]
    13da:	e8 ff 36    	bra       LEU, 0x13ac <.L223>
    13dc:	e1 52 80    	mov.w     0xa5c, w1
    13de:	01 00 e0    	cp0.w     w1
    13e0:	e5 ff 3a    	bra       NZ, 0x13ac <.L223>
    13e2:	08 04 e0    	cp0.b     w8
    13e4:	e9 ff 32    	bra       Z, 0x13b8 <.L244>
    13e6:	e0 c7 b3    	mov.b     #0x7e, w0
    13e8:	99 4f 10    	subr.b    w0, [w9], [w15]
    13ea:	e6 ff 32    	bra       Z, 0x13b8 <.L244>
    13ec:	01 44 78    	mov.b     w1, w8
    13ee:	00 01 eb    	clr.w     w2
    13f0:	01 01 20    	mov.w     #0x10, w1
    13f2:	80 00 20    	mov.w     #0x8, w0
    13f4:	2f 0e 07    	rcall     0x3054 <_EE_alarm_SetRelAlarm>
    13f6:	e4 ff 37    	bra       0x13c0 <.L229>

000013f8 <.L247>:
    13f8:	80 00 20    	mov.w     #0x8, w0
    13fa:	96 0d 07    	rcall     0x2f28 <_EE_alarm_CancelAlarm>
    13fc:	ec ff 37    	bra       0x13d6 <.L232>

000013fe <_FuncTask_TimeOut>:
    13fe:	10 00 20    	mov.w     #0x1, w0
    1400:	e0 52 88    	mov.w     w0, 0xa5c
    1402:	00 00 06    	return    

00001404 <_T1_program>:
    1404:	00 00 eb    	clr.w     w0
    1406:	20 08 88    	mov.w     w0, 0x104
    1408:	00 08 88    	mov.w     w0, 0x100
    140a:	02 a1 ef    	setm.w    0x102
    140c:	a5 c0 bf    	mov.b     0xa5, WREG
    140e:	f1 c8 b3    	mov.b     #0x8f, w1
    1410:	01 40 60    	and.b     w0, w1, w0
    1412:	00 45 b3    	ior.b     #0x50, w0
    1414:	a5 e0 b7    	mov.b     WREG, 0xa5
    1416:	84 60 a9    	bclr.b    0x84, #0x3
    1418:	94 60 a8    	bset.b    0x94, #0x3
    141a:	05 e1 a8    	bset.b    0x105, #0x7
    141c:	04 c1 bf    	mov.b     0x104, WREG
    141e:	f1 cc b3    	mov.b     #0xcf, w1
    1420:	01 40 60    	and.b     w0, w1, w0
    1422:	00 44 a0    	bset.b    w0, #0x4
    1424:	04 e1 b7    	mov.b     WREG, 0x104
    1426:	00 00 06    	return    

00001428 <_T1_clear>:
    1428:	84 60 a9    	bclr.b    0x84, #0x3
    142a:	00 00 06    	return    

0000142c <_ISR2__T1Interrupt>:
    142c:	fd ff 07    	rcall     0x1428 <_T1_clear>
    142e:	00 00 eb    	clr.w     w0
    1430:	54 0c 37    	bra       0x2cda <_EE_alarm_CounterTick>

00001432 <__T1Interrupt>:
    1432:	36 00 f8    	push      0x36
    1434:	80 9f be    	mov.d     w0, [w15++]
    1436:	82 9f be    	mov.d     w2, [w15++]
    1438:	84 9f be    	mov.d     w4, [w15++]
    143a:	86 9f be    	mov.d     w6, [w15++]
    143c:	88 1f 78    	mov.w     w8, [w15++]
    143e:	34 00 f8    	push      0x34
    1440:	00 c0 b3    	mov.b     #0x0, w0
    1442:	a0 01 88    	mov.w     w0, 0x34

00001444 <.bb>:
    1444:	11 02 80    	mov.w     0x42, w1
    1446:	42 c0 bf    	mov.b     0x42, WREG
    1448:	7f 40 60    	and.b     w0, #0x1f, w0
    144a:	08 cc b3    	mov.b     #0xc0, w8
    144c:	08 40 70    	ior.b     w0, w8, w0
    144e:	42 e0 b7    	mov.b     WREG, 0x42

00001450 <.eb>:
    1450:	3c 2b ec    	inc.w     0xb3c

00001452 <.bb>:
    1452:	11 02 88    	mov.w     w1, 0x42

00001454 <.eb>:
    1454:	eb ff 07    	rcall     0x142c <_ISR2__T1Interrupt>

00001456 <.bb>:
    1456:	42 c0 bf    	mov.b     0x42, WREG
    1458:	7f 40 60    	and.b     w0, #0x1f, w0
    145a:	08 40 70    	ior.b     w0, w8, w0
    145c:	42 e0 b7    	mov.b     WREG, 0x42

0000145e <.eb>:
    145e:	3c 0b ed    	dec.w     0xb3c, WREG
    1460:	e0 59 88    	mov.w     w0, 0xb3c
    1462:	08 00 32    	bra       Z, 0x1474 <.L274>

00001464 <.L269>:
    1464:	34 00 f9    	pop       0x34
    1466:	4f 04 78    	mov.w     [--w15], w8
    1468:	4f 03 be    	mov.d     [--w15], w6
    146a:	4f 02 be    	mov.d     [--w15], w4
    146c:	4f 01 be    	mov.d     [--w15], w2
    146e:	4f 00 be    	mov.d     [--w15], w0
    1470:	36 00 f9    	pop       0x36
    1472:	00 40 06    	retfie    

00001474 <.L274>:
    1474:	dd 0d 07    	rcall     0x3030 <_EE_IRQ_end_instance>
    1476:	d0 59 80    	mov.w     0xb3a, w0
    1478:	00 00 e0    	cp0.w     w0
    147a:	f4 ff 35    	bra       LT, 0x1464 <.L269>

0000147c <.L270>:
    147c:	fc 0d 07    	rcall     0x3076 <_EE_std_run_task_code>
    147e:	00 00 e0    	cp0.w     w0
    1480:	f1 ff 35    	bra       LT, 0x1464 <.L269>
    1482:	f9 0d 07    	rcall     0x3076 <_EE_std_run_task_code>
    1484:	00 00 e0    	cp0.w     w0
    1486:	fa ff 3d    	bra       GE, 0x147c <.L270>
    1488:	ed ff 37    	bra       0x1464 <.L269>

0000148a <_FuncTaskSend>:
    148a:	88 9f be    	mov.d     w8, [w15++]
    148c:	8a 9f be    	mov.d     w10, [w15++]
    148e:	e0 c7 b3    	mov.b     #0x7e, w0
    1490:	ae e9 b7    	mov.b     WREG, 0x9ae
    1492:	00 45 eb    	clr.b     w10
    1494:	0a 00 78    	mov.w     w10, w0
    1496:	af e9 b7    	mov.b     WREG, 0x9af
    1498:	40 c3 b3    	mov.b     #0x34, w0
    149a:	b0 e9 b7    	mov.b     WREG, 0x9b0
    149c:	00 c1 b3    	mov.b     #0x10, w0
    149e:	b1 e9 b7    	mov.b     WREG, 0x9b1
    14a0:	00 05 fd    	exch      w0, w10
    14a2:	b2 e9 b7    	mov.b     WREG, 0x9b2
    14a4:	b3 e9 b7    	mov.b     WREG, 0x9b3
    14a6:	00 05 fd    	exch      w0, w10
    14a8:	30 c1 b3    	mov.b     #0x13, w0
    14aa:	b4 e9 b7    	mov.b     WREG, 0x9b4
    14ac:	20 ca b3    	mov.b     #0xa2, w0
    14ae:	b5 e9 b7    	mov.b     WREG, 0x9b5
    14b0:	0a 00 78    	mov.w     w10, w0
    14b2:	b6 e9 b7    	mov.b     WREG, 0x9b6
    14b4:	00 c4 b3    	mov.b     #0x40, w0
    14b6:	b7 e9 b7    	mov.b     WREG, 0x9b7
    14b8:	60 ca b3    	mov.b     #0xa6, w0
    14ba:	b8 e9 b7    	mov.b     WREG, 0x9b8
    14bc:	b0 cd b3    	mov.b     #0xdb, w0
    14be:	b9 e9 b7    	mov.b     WREG, 0x9b9
    14c0:	e0 c0 b3    	mov.b     #0xe, w0
    14c2:	ba e9 b7    	mov.b     WREG, 0x9ba
    14c4:	bb e9 ef    	setm.b    0x9bb
    14c6:	e0 cf b3    	mov.b     #0xfe, w0
    14c8:	bc e9 b7    	mov.b     WREG, 0x9bc
    14ca:	00 05 fd    	exch      w0, w10
    14cc:	bd e9 b7    	mov.b     WREG, 0x9bd
    14ce:	be e9 b7    	mov.b     WREG, 0x9be
    14d0:	00 05 fd    	exch      w0, w10
    14d2:	10 c0 b3    	mov.b     #0x1, w0
    14d4:	bf e9 b7    	mov.b     WREG, 0x9bf
    14d6:	c0 e9 b7    	mov.b     WREG, 0x9c0
    14d8:	7c ca bf    	mov.b     0xa7c, WREG
    14da:	c1 e9 b7    	mov.b     WREG, 0x9c1
    14dc:	7b ca bf    	mov.b     0xa7b, WREG
    14de:	c2 e9 b7    	mov.b     WREG, 0x9c2
    14e0:	7a ca bf    	mov.b     0xa7a, WREG
    14e2:	c3 e9 b7    	mov.b     WREG, 0x9c3
    14e4:	79 ca bf    	mov.b     0xa79, WREG
    14e6:	c4 e9 b7    	mov.b     WREG, 0x9c4
    14e8:	78 ca bf    	mov.b     0xa78, WREG
    14ea:	c5 e9 b7    	mov.b     WREG, 0x9c5
    14ec:	77 ca bf    	mov.b     0xa77, WREG
    14ee:	c6 e9 b7    	mov.b     WREG, 0x9c6
    14f0:	20 c0 b3    	mov.b     #0x2, w0
    14f2:	c7 e9 b7    	mov.b     WREG, 0x9c7
    14f4:	76 ca bf    	mov.b     0xa76, WREG
    14f6:	c8 e9 b7    	mov.b     WREG, 0x9c8
    14f8:	75 ca bf    	mov.b     0xa75, WREG
    14fa:	c9 e9 b7    	mov.b     WREG, 0x9c9
    14fc:	74 ca bf    	mov.b     0xa74, WREG
    14fe:	ca e9 b7    	mov.b     WREG, 0x9ca
    1500:	73 ca bf    	mov.b     0xa73, WREG
    1502:	cb e9 b7    	mov.b     WREG, 0x9cb
    1504:	72 ca bf    	mov.b     0xa72, WREG
    1506:	cc e9 b7    	mov.b     WREG, 0x9cc
    1508:	71 ca bf    	mov.b     0xa71, WREG
    150a:	cd e9 b7    	mov.b     WREG, 0x9cd
    150c:	30 c0 b3    	mov.b     #0x3, w0
    150e:	ce e9 b7    	mov.b     WREG, 0x9ce
    1510:	8d ca bf    	mov.b     0xa8d, WREG
    1512:	cf e9 b7    	mov.b     WREG, 0x9cf
    1514:	8c ca bf    	mov.b     0xa8c, WREG
    1516:	d0 e9 b7    	mov.b     WREG, 0x9d0
    1518:	8b ca bf    	mov.b     0xa8b, WREG
    151a:	d1 e9 b7    	mov.b     WREG, 0x9d1
    151c:	8a ca bf    	mov.b     0xa8a, WREG
    151e:	d2 e9 b7    	mov.b     WREG, 0x9d2
    1520:	89 ca bf    	mov.b     0xa89, WREG
    1522:	d3 e9 b7    	mov.b     WREG, 0x9d3
    1524:	88 ca bf    	mov.b     0xa88, WREG
    1526:	d4 e9 b7    	mov.b     WREG, 0x9d4
    1528:	87 ca bf    	mov.b     0xa87, WREG
    152a:	d5 e9 b7    	mov.b     WREG, 0x9d5
    152c:	86 ca bf    	mov.b     0xa86, WREG
    152e:	d6 e9 b7    	mov.b     WREG, 0x9d6
    1530:	4b c0 b3    	mov.b     #0x4, w11
    1532:	0b 00 78    	mov.w     w11, w0
    1534:	d7 e9 b7    	mov.b     WREG, 0x9d7
    1536:	63 ca bf    	mov.b     0xa63, WREG
    1538:	d8 e9 b7    	mov.b     WREG, 0x9d8
    153a:	61 ca bf    	mov.b     0xa61, WREG
    153c:	d9 e9 b7    	mov.b     WREG, 0x9d9
    153e:	da e9 b7    	mov.b     WREG, 0x9da
    1540:	50 c0 b3    	mov.b     #0x5, w0
    1542:	db e9 b7    	mov.b     WREG, 0x9db
    1544:	18 54 80    	mov.w     0xa82, w8
    1546:	29 54 80    	mov.w     0xa84, w9
    1548:	08 00 be    	mov.d     w8, w0
    154a:	3f f8 07    	rcall     0x5ca <___fixunssfsi>
    154c:	dc e9 b7    	mov.b     WREG, 0x9dc
    154e:	02 00 20    	mov.w     #0x0, w2
    1550:	83 2c 24    	mov.w     #0x42c8, w3
    1552:	08 00 be    	mov.d     w8, w0
    1554:	b4 f6 07    	rcall     0x2be <___mulsf3>
    1556:	39 f8 07    	rcall     0x5ca <___fixunssfsi>
    1558:	42 06 20    	mov.w     #0x64, w2
    155a:	81 1f 78    	mov.w     w1, [w15++]
    155c:	11 00 09    	repeat    #0x11
    155e:	02 80 d8    	div.uw    w0, w2
    1560:	01 01 78    	mov.w     w1, w2
    1562:	cf 00 78    	mov.w     [--w15], w1
    1564:	02 00 78    	mov.w     w2, w0
    1566:	dd e9 b7    	mov.b     WREG, 0x9dd
    1568:	b0 52 80    	mov.w     0xa56, w0
    156a:	de e9 b7    	mov.b     WREG, 0x9de
    156c:	a0 52 80    	mov.w     0xa54, w0
    156e:	df e9 b7    	mov.b     WREG, 0x9df
    1570:	90 52 80    	mov.w     0xa52, w0
    1572:	e0 e9 b7    	mov.b     WREG, 0x9e0
    1574:	80 52 80    	mov.w     0xa50, w0
    1576:	e1 e9 b7    	mov.b     WREG, 0x9e1
    1578:	70 52 80    	mov.w     0xa4e, w0
    157a:	e2 e9 b7    	mov.b     WREG, 0x9e2
    157c:	0b 00 78    	mov.w     w11, w0
    157e:	e3 e9 b7    	mov.b     WREG, 0x9e3
    1580:	a0 c0 b3    	mov.b     #0xa, w0
    1582:	e4 e9 b7    	mov.b     WREG, 0x9e4
    1584:	0a 00 78    	mov.w     w10, w0
    1586:	e5 e9 b7    	mov.b     WREG, 0x9e5
    1588:	d0 00 20    	mov.w     #0xd, w0
    158a:	d0 fd 07    	rcall     0x112c <_Delay>
    158c:	81 03 20    	mov.w     #0x38, w1
    158e:	e0 9a 20    	mov.w     #0x9ae, w0
    1590:	07 0b 07    	rcall     0x2ba0 <_Serial_Send_Frame>

00001592 <.bb>:
    1592:	00 f0 2f    	mov.w     #0xff00, w0
    1594:	c4 22 b6    	and.w     0x2c4
    1596:	c4 c2 a8    	bset.b    0x2c4, #0x6

00001598 <.eb>:
    1598:	4f 05 be    	mov.d     [--w15], w10
    159a:	4f 04 be    	mov.d     [--w15], w8
    159c:	00 00 06    	return    

0000159e <_FuncTaskA>:
    159e:	00 f0 2f    	mov.w     #0xff00, w0
    15a0:	c4 22 b6    	and.w     0x2c4
    15a2:	f0 0f 20    	mov.w     #0xff, w0
    15a4:	c4 22 b7    	ior.w     0x2c4

000015a6 <.eb>:
    15a6:	b0 01 20    	mov.w     #0x1b, w0
    15a8:	c1 fd 07    	rcall     0x112c <_Delay>
    15aa:	5a 6a ef    	clr.b     0xa5a
    15ac:	d0 fe 07    	rcall     0x134e <_reset_buffers>
    15ae:	e0 c7 b3    	mov.b     #0x7e, w0
    15b0:	ae e9 b7    	mov.b     WREG, 0x9ae
    15b2:	af 69 ef    	clr.b     0x9af
    15b4:	20 c1 b3    	mov.b     #0x12, w0
    15b6:	b0 e9 b7    	mov.b     WREG, 0x9b0
    15b8:	00 c1 b3    	mov.b     #0x10, w0
    15ba:	b1 e9 b7    	mov.b     WREG, 0x9b1
    15bc:	b2 69 ef    	clr.b     0x9b2
    15be:	b3 69 ef    	clr.b     0x9b3
    15c0:	30 c1 b3    	mov.b     #0x13, w0
    15c2:	b4 e9 b7    	mov.b     WREG, 0x9b4
    15c4:	20 ca b3    	mov.b     #0xa2, w0
    15c6:	b5 e9 b7    	mov.b     WREG, 0x9b5
    15c8:	b6 69 ef    	clr.b     0x9b6
    15ca:	00 c4 b3    	mov.b     #0x40, w0
    15cc:	b7 e9 b7    	mov.b     WREG, 0x9b7
    15ce:	60 ca b3    	mov.b     #0xa6, w0
    15d0:	b8 e9 b7    	mov.b     WREG, 0x9b8
    15d2:	a0 cd b3    	mov.b     #0xda, w0
    15d4:	b9 e9 b7    	mov.b     WREG, 0x9b9
    15d6:	d0 ca b3    	mov.b     #0xad, w0
    15d8:	ba e9 b7    	mov.b     WREG, 0x9ba
    15da:	bb e9 ef    	setm.b    0x9bb
    15dc:	e0 cf b3    	mov.b     #0xfe, w0
    15de:	bc e9 b7    	mov.b     WREG, 0x9bc
    15e0:	bd 69 ef    	clr.b     0x9bd
    15e2:	be 69 ef    	clr.b     0x9be
    15e4:	30 c5 b3    	mov.b     #0x53, w0
    15e6:	bf e9 b7    	mov.b     WREG, 0x9bf
    15e8:	6e 40 50    	sub.b     w0, #0xe, w0
    15ea:	c0 e9 b7    	mov.b     WREG, 0x9c0
    15ec:	69 40 40    	add.b     w0, #0x9, w0
    15ee:	c1 e9 b7    	mov.b     WREG, 0x9c1
    15f0:	10 c0 b3    	mov.b     #0x1, w0
    15f2:	c2 e9 b7    	mov.b     WREG, 0x9c2
    15f4:	c3 69 ef    	clr.b     0x9c3
    15f6:	61 01 20    	mov.w     #0x16, w1
    15f8:	e0 9a 20    	mov.w     #0x9ae, w0
    15fa:	d2 0a 07    	rcall     0x2ba0 <_Serial_Send_Frame>
    15fc:	d0 00 20    	mov.w     #0xd, w0
    15fe:	96 fd 07    	rcall     0x112c <_Delay>
    1600:	81 c1 b3    	mov.b     #0x18, w1
    1602:	e0 9f 20    	mov.w     #0x9fe, w0
    1604:	c9 fe 07    	rcall     0x1398 <_read_sensor_frame>
    1606:	00 00 fb    	se        w0, w0
    1608:	b0 52 88    	mov.w     w0, 0xa56
    160a:	56 0a e2    	cp0.w     0xa56
    160c:	05 00 3a    	bra       NZ, 0x1618 <.L281>
    160e:	11 a0 20    	mov.w     #0xa01, w1
    1610:	91 40 78    	mov.b     [w1], w1
    1612:	00 c9 b3    	mov.b     #0x90, w0
    1614:	80 cf 50    	sub.b     w1, w0, [w15]
    1616:	04 00 32    	bra       Z, 0x1620 <.L286>

00001618 <.L281>:
    1618:	00 f0 2f    	mov.w     #0xff00, w0
    161a:	c4 22 b6    	and.w     0x2c4
    161c:	c4 02 a8    	bset.b    0x2c4, #0x0

0000161e <.eb>:
    161e:	00 00 06    	return    

00001620 <.L286>:
    1620:	0e ca bf    	mov.b     0xa0e, WREG
    1622:	7c ea b7    	mov.b     WREG, 0xa7c
    1624:	0f ca bf    	mov.b     0xa0f, WREG
    1626:	7b ea b7    	mov.b     WREG, 0xa7b
    1628:	10 ca bf    	mov.b     0xa10, WREG
    162a:	7a ea b7    	mov.b     WREG, 0xa7a
    162c:	11 ca bf    	mov.b     0xa11, WREG
    162e:	79 ea b7    	mov.b     WREG, 0xa79
    1630:	12 ca bf    	mov.b     0xa12, WREG
    1632:	78 ea b7    	mov.b     WREG, 0xa78
    1634:	13 ca bf    	mov.b     0xa13, WREG
    1636:	77 ea b7    	mov.b     WREG, 0xa77
    1638:	14 ca bf    	mov.b     0xa14, WREG
    163a:	62 ea b7    	mov.b     WREG, 0xa62
    163c:	15 ca bf    	mov.b     0xa15, WREG
    163e:	60 ea b7    	mov.b     WREG, 0xa60

00001640 <.bb>:
    1640:	00 f0 2f    	mov.w     #0xff00, w0
    1642:	c4 22 b6    	and.w     0x2c4
    1644:	c4 02 a8    	bset.b    0x2c4, #0x0

00001646 <.eb>:
    1646:	00 00 06    	return    
    1648:	eb ff 37    	bra       0x1620 <.L286>

0000164a <_FuncTaskB>:
    164a:	e0 c7 b3    	mov.b     #0x7e, w0
    164c:	ae e9 b7    	mov.b     WREG, 0x9ae
    164e:	af 69 ef    	clr.b     0x9af
    1650:	20 c1 b3    	mov.b     #0x12, w0
    1652:	b0 e9 b7    	mov.b     WREG, 0x9b0
    1654:	00 c1 b3    	mov.b     #0x10, w0
    1656:	b1 e9 b7    	mov.b     WREG, 0x9b1
    1658:	b2 69 ef    	clr.b     0x9b2
    165a:	b3 69 ef    	clr.b     0x9b3
    165c:	30 c1 b3    	mov.b     #0x13, w0
    165e:	b4 e9 b7    	mov.b     WREG, 0x9b4
    1660:	20 ca b3    	mov.b     #0xa2, w0
    1662:	b5 e9 b7    	mov.b     WREG, 0x9b5
    1664:	b6 69 ef    	clr.b     0x9b6
    1666:	00 c4 b3    	mov.b     #0x40, w0
    1668:	b7 e9 b7    	mov.b     WREG, 0x9b7
    166a:	60 ca b3    	mov.b     #0xa6, w0
    166c:	b8 e9 b7    	mov.b     WREG, 0x9b8
    166e:	a0 cd b3    	mov.b     #0xda, w0
    1670:	b9 e9 b7    	mov.b     WREG, 0x9b9
    1672:	50 c5 b3    	mov.b     #0x55, w0
    1674:	ba e9 b7    	mov.b     WREG, 0x9ba
    1676:	bb e9 ef    	setm.b    0x9bb
    1678:	e0 cf b3    	mov.b     #0xfe, w0
    167a:	bc e9 b7    	mov.b     WREG, 0x9bc
    167c:	bd 69 ef    	clr.b     0x9bd
    167e:	be 69 ef    	clr.b     0x9be
    1680:	30 c5 b3    	mov.b     #0x53, w0
    1682:	bf e9 b7    	mov.b     WREG, 0x9bf
    1684:	6e 40 50    	sub.b     w0, #0xe, w0
    1686:	c0 e9 b7    	mov.b     WREG, 0x9c0
    1688:	69 40 40    	add.b     w0, #0x9, w0
    168a:	c1 e9 b7    	mov.b     WREG, 0x9c1
    168c:	20 c0 b3    	mov.b     #0x2, w0
    168e:	c2 e9 b7    	mov.b     WREG, 0x9c2
    1690:	c3 69 ef    	clr.b     0x9c3
    1692:	61 01 20    	mov.w     #0x16, w1
    1694:	e0 9a 20    	mov.w     #0x9ae, w0
    1696:	84 0a 07    	rcall     0x2ba0 <_Serial_Send_Frame>
    1698:	d0 00 20    	mov.w     #0xd, w0
    169a:	48 fd 07    	rcall     0x112c <_Delay>
    169c:	81 c1 b3    	mov.b     #0x18, w1
    169e:	e0 9f 20    	mov.w     #0x9fe, w0
    16a0:	7b fe 07    	rcall     0x1398 <_read_sensor_frame>
    16a2:	00 00 fb    	se        w0, w0
    16a4:	a0 52 88    	mov.w     w0, 0xa54
    16a6:	54 0a e2    	cp0.w     0xa54
    16a8:	05 00 3a    	bra       NZ, 0x16b4 <.L290>
    16aa:	11 a0 20    	mov.w     #0xa01, w1
    16ac:	91 40 78    	mov.b     [w1], w1
    16ae:	00 c9 b3    	mov.b     #0x90, w0
    16b0:	80 cf 50    	sub.b     w1, w0, [w15]
    16b2:	04 00 32    	bra       Z, 0x16bc <.L295>

000016b4 <.L290>:
    16b4:	00 f0 2f    	mov.w     #0xff00, w0
    16b6:	c4 22 b6    	and.w     0x2c4
    16b8:	c4 22 a8    	bset.b    0x2c4, #0x1

000016ba <.eb>:
    16ba:	00 00 06    	return    

000016bc <.L295>:
    16bc:	0e ca bf    	mov.b     0xa0e, WREG
    16be:	76 ea b7    	mov.b     WREG, 0xa76
    16c0:	0f ca bf    	mov.b     0xa0f, WREG
    16c2:	75 ea b7    	mov.b     WREG, 0xa75
    16c4:	10 ca bf    	mov.b     0xa10, WREG
    16c6:	74 ea b7    	mov.b     WREG, 0xa74
    16c8:	11 ca bf    	mov.b     0xa11, WREG
    16ca:	73 ea b7    	mov.b     WREG, 0xa73
    16cc:	12 ca bf    	mov.b     0xa12, WREG
    16ce:	72 ea b7    	mov.b     WREG, 0xa72
    16d0:	13 ca bf    	mov.b     0xa13, WREG
    16d2:	71 ea b7    	mov.b     WREG, 0xa71
    16d4:	14 ca bf    	mov.b     0xa14, WREG
    16d6:	62 ea b7    	mov.b     WREG, 0xa62
    16d8:	15 ca bf    	mov.b     0xa15, WREG
    16da:	60 ea b7    	mov.b     WREG, 0xa60

000016dc <.bb>:
    16dc:	00 f0 2f    	mov.w     #0xff00, w0
    16de:	c4 22 b6    	and.w     0x2c4
    16e0:	c4 22 a8    	bset.b    0x2c4, #0x1

000016e2 <.eb>:
    16e2:	00 00 06    	return    
    16e4:	eb ff 37    	bra       0x16bc <.L295>

000016e6 <_FuncTaskC>:
    16e6:	00 f0 2f    	mov.w     #0xff00, w0
    16e8:	c4 22 b6    	and.w     0x2c4
    16ea:	c4 42 a8    	bset.b    0x2c4, #0x2

000016ec <.eb>:
    16ec:	00 00 06    	return    

000016ee <_FuncTaskD>:
    16ee:	e0 c7 b3    	mov.b     #0x7e, w0
    16f0:	ae e9 b7    	mov.b     WREG, 0x9ae
    16f2:	af 69 ef    	clr.b     0x9af
    16f4:	f0 c0 b3    	mov.b     #0xf, w0
    16f6:	b0 e9 b7    	mov.b     WREG, 0x9b0
    16f8:	00 c1 b3    	mov.b     #0x10, w0
    16fa:	b1 e9 b7    	mov.b     WREG, 0x9b1
    16fc:	b2 69 ef    	clr.b     0x9b2
    16fe:	b3 69 ef    	clr.b     0x9b3
    1700:	30 c1 b3    	mov.b     #0x13, w0
    1702:	b4 e9 b7    	mov.b     WREG, 0x9b4
    1704:	20 ca b3    	mov.b     #0xa2, w0
    1706:	b5 e9 b7    	mov.b     WREG, 0x9b5
    1708:	b6 69 ef    	clr.b     0x9b6
    170a:	00 c4 b3    	mov.b     #0x40, w0
    170c:	b7 e9 b7    	mov.b     WREG, 0x9b7
    170e:	80 ca b3    	mov.b     #0xa8, w0
    1710:	b8 e9 b7    	mov.b     WREG, 0x9b8
    1712:	00 c5 b3    	mov.b     #0x50, w0
    1714:	b9 e9 b7    	mov.b     WREG, 0x9b9
    1716:	10 cc b3    	mov.b     #0xc1, w0
    1718:	ba e9 b7    	mov.b     WREG, 0x9ba
    171a:	bb e9 ef    	setm.b    0x9bb
    171c:	e0 cf b3    	mov.b     #0xfe, w0
    171e:	bc e9 b7    	mov.b     WREG, 0x9bc
    1720:	bd 69 ef    	clr.b     0x9bd
    1722:	be 69 ef    	clr.b     0x9be
    1724:	30 c4 b3    	mov.b     #0x43, w0
    1726:	bf e9 b7    	mov.b     WREG, 0x9bf
    1728:	c0 69 ef    	clr.b     0x9c0
    172a:	31 01 20    	mov.w     #0x13, w1
    172c:	e0 9a 20    	mov.w     #0x9ae, w0
    172e:	38 0a 07    	rcall     0x2ba0 <_Serial_Send_Frame>
    1730:	d0 00 20    	mov.w     #0xd, w0
    1732:	fc fc 07    	rcall     0x112c <_Delay>
    1734:	81 c1 b3    	mov.b     #0x18, w1
    1736:	e0 9f 20    	mov.w     #0x9fe, w0
    1738:	2f fe 07    	rcall     0x1398 <_read_sensor_frame>
    173a:	00 00 fb    	se        w0, w0
    173c:	80 52 88    	mov.w     w0, 0xa50
    173e:	50 0a e2    	cp0.w     0xa50
    1740:	05 00 3a    	bra       NZ, 0x174c <.L303>
    1742:	11 a0 20    	mov.w     #0xa01, w1
    1744:	91 40 78    	mov.b     [w1], w1
    1746:	00 c9 b3    	mov.b     #0x90, w0
    1748:	80 cf 50    	sub.b     w1, w0, [w15]
    174a:	04 00 32    	bra       Z, 0x1754 <.L308>

0000174c <.L303>:
    174c:	00 f0 2f    	mov.w     #0xff00, w0
    174e:	c4 22 b6    	and.w     0x2c4
    1750:	c4 62 a8    	bset.b    0x2c4, #0x3

00001752 <.eb>:
    1752:	00 00 06    	return    

00001754 <.L308>:
    1754:	0e ca bf    	mov.b     0xa0e, WREG
    1756:	8d ea b7    	mov.b     WREG, 0xa8d
    1758:	0f ca bf    	mov.b     0xa0f, WREG
    175a:	8c ea b7    	mov.b     WREG, 0xa8c
    175c:	10 ca bf    	mov.b     0xa10, WREG
    175e:	8b ea b7    	mov.b     WREG, 0xa8b
    1760:	11 ca bf    	mov.b     0xa11, WREG
    1762:	8a ea b7    	mov.b     WREG, 0xa8a
    1764:	12 ca bf    	mov.b     0xa12, WREG
    1766:	89 ea b7    	mov.b     WREG, 0xa89
    1768:	13 ca bf    	mov.b     0xa13, WREG
    176a:	88 ea b7    	mov.b     WREG, 0xa88
    176c:	14 ca bf    	mov.b     0xa14, WREG
    176e:	87 ea b7    	mov.b     WREG, 0xa87
    1770:	15 ca bf    	mov.b     0xa15, WREG
    1772:	86 ea b7    	mov.b     WREG, 0xa86

00001774 <.bb>:
    1774:	00 f0 2f    	mov.w     #0xff00, w0
    1776:	c4 22 b6    	and.w     0x2c4
    1778:	c4 62 a8    	bset.b    0x2c4, #0x3

0000177a <.eb>:
    177a:	00 00 06    	return    
    177c:	eb ff 37    	bra       0x1754 <.L308>

0000177e <_FuncTaskE>:
    177e:	88 9f be    	mov.d     w8, [w15++]
    1780:	8a 9f be    	mov.d     w10, [w15++]
    1782:	56 0a e2    	cp0.w     0xa56
    1784:	02 00 3a    	bra       NZ, 0x178a <.L312>
    1786:	54 0a e2    	cp0.w     0xa54
    1788:	28 00 32    	bra       Z, 0x17da <.L328>

0000178a <.L312>:
    178a:	c0 52 80    	mov.w     0xa58, w0
    178c:	e2 0f 50    	sub.w     w0, #0x2, [w15]
    178e:	06 00 32    	bra       Z, 0x179c <.L329>

00001790 <.L315>:
    1790:	00 f0 2f    	mov.w     #0xff00, w0
    1792:	c4 22 b6    	and.w     0x2c4
    1794:	c4 82 a8    	bset.b    0x2c4, #0x4

00001796 <.eb>:
    1796:	4f 05 be    	mov.d     [--w15], w10
    1798:	4f 04 be    	mov.d     [--w15], w8
    179a:	00 00 06    	return    

0000179c <.L329>:
    179c:	10 54 80    	mov.w     0xa82, w0
    179e:	21 54 80    	mov.w     0xa84, w1
    17a0:	2f f7 07    	rcall     0x600 <___fixsfsi>
    17a2:	80 40 78    	mov.b     w0, w1
    17a4:	56 0a e2    	cp0.w     0xa56
    17a6:	03 00 3a    	bra       NZ, 0x17ae <.L317>
    17a8:	a2 52 80    	mov.w     0xa54, w2
    17aa:	02 00 e0    	cp0.w     w2
    17ac:	7e 00 32    	bra       Z, 0x18aa <.L330>

000017ae <.L317>:
    17ae:	56 0a e2    	cp0.w     0xa56
    17b0:	ef ff 3a    	bra       NZ, 0x1790 <.L315>
    17b2:	a2 52 80    	mov.w     0xa54, w2
    17b4:	02 00 e0    	cp0.w     w2
    17b6:	ec ff 3a    	bra       NZ, 0x1790 <.L315>
    17b8:	20 c2 b3    	mov.b     #0x22, w0
    17ba:	80 cf 50    	sub.b     w1, w0, [w15]
    17bc:	e9 ff 34    	bra       LE, 0x1790 <.L315>
    17be:	ac 09 ec    	inc.w     0x9ac, WREG
    17c0:	60 4d 88    	mov.w     w0, 0x9ac
    17c2:	e4 0f 50    	sub.w     w0, #0x4, [w15]
    17c4:	e5 ff 34    	bra       LE, 0x1790 <.L315>
    17c6:	02 00 78    	mov.w     w2, w0
    17c8:	64 ea b7    	mov.b     WREG, 0xa64
    17ca:	62 4d 88    	mov.w     w2, 0x9ac

000017cc <.bb>:
    17cc:	00 f0 2f    	mov.w     #0xff00, w0
    17ce:	c4 22 b6    	and.w     0x2c4
    17d0:	c4 82 a8    	bset.b    0x2c4, #0x4

000017d2 <.eb>:
    17d2:	4f 05 be    	mov.d     [--w15], w10
    17d4:	4f 04 be    	mov.d     [--w15], w8
    17d6:	00 00 06    	return    
    17d8:	e1 ff 37    	bra       0x179c <.L329>

000017da <.L328>:
    17da:	7c ca bf    	mov.b     0xa7c, WREG
    17dc:	00 80 fb    	ze        w0, w0
    17de:	cf 80 de    	asr.w     w0, #0xf, w1
    17e0:	12 f6 07    	rcall     0x406
    17e2:	d2 cc 2c    	mov.w     #0xcccd, w2
    17e4:	c3 dc 23    	mov.w     #0x3dcc, w3
    17e6:	6b f5 07    	rcall     0x2be <___mulsf3>
    17e8:	00 04 be    	mov.d     w0, w8
    17ea:	62 66 26    	mov.w     #0x6666, w2
    17ec:	63 f6 23    	mov.w     #0x3f66, w3
    17ee:	f0 53 80    	mov.w     0xa7e, w0
    17f0:	01 54 80    	mov.w     0xa80, w1
    17f2:	65 f5 07    	rcall     0x2be <___mulsf3>
    17f4:	00 01 be    	mov.d     w0, w2
    17f6:	08 00 be    	mov.d     w8, w0
    17f8:	97 f5 07    	rcall     0x328
    17fa:	00 05 be    	mov.d     w0, w10
    17fc:	7a ca bf    	mov.b     0xa7a, WREG
    17fe:	00 80 fb    	ze        w0, w0
    1800:	cf 80 de    	asr.w     w0, #0xf, w1
    1802:	01 f6 07    	rcall     0x406
    1804:	d2 cc 2c    	mov.w     #0xcccd, w2
    1806:	c3 dc 23    	mov.w     #0x3dcc, w3
    1808:	5a f5 07    	rcall     0x2be <___mulsf3>
    180a:	00 04 be    	mov.d     w0, w8
    180c:	62 66 26    	mov.w     #0x6666, w2
    180e:	63 f6 23    	mov.w     #0x3f66, w3
    1810:	0a 00 be    	mov.d     w10, w0
    1812:	55 f5 07    	rcall     0x2be <___mulsf3>
    1814:	00 01 be    	mov.d     w0, w2
    1816:	08 00 be    	mov.d     w8, w0
    1818:	87 f5 07    	rcall     0x328
    181a:	00 05 be    	mov.d     w0, w10
    181c:	78 ca bf    	mov.b     0xa78, WREG
    181e:	00 80 fb    	ze        w0, w0
    1820:	cf 80 de    	asr.w     w0, #0xf, w1
    1822:	f1 f5 07    	rcall     0x406
    1824:	d2 cc 2c    	mov.w     #0xcccd, w2
    1826:	c3 dc 23    	mov.w     #0x3dcc, w3
    1828:	4a f5 07    	rcall     0x2be <___mulsf3>
    182a:	00 04 be    	mov.d     w0, w8
    182c:	62 66 26    	mov.w     #0x6666, w2
    182e:	63 f6 23    	mov.w     #0x3f66, w3
    1830:	0a 00 be    	mov.d     w10, w0
    1832:	45 f5 07    	rcall     0x2be <___mulsf3>
    1834:	00 01 be    	mov.d     w0, w2
    1836:	08 00 be    	mov.d     w8, w0
    1838:	77 f5 07    	rcall     0x328
    183a:	00 05 be    	mov.d     w0, w10
    183c:	76 ca bf    	mov.b     0xa76, WREG
    183e:	00 80 fb    	ze        w0, w0
    1840:	cf 80 de    	asr.w     w0, #0xf, w1
    1842:	e1 f5 07    	rcall     0x406
    1844:	d2 cc 2c    	mov.w     #0xcccd, w2
    1846:	c3 dc 23    	mov.w     #0x3dcc, w3
    1848:	3a f5 07    	rcall     0x2be <___mulsf3>
    184a:	00 04 be    	mov.d     w0, w8
    184c:	62 66 26    	mov.w     #0x6666, w2
    184e:	63 f6 23    	mov.w     #0x3f66, w3
    1850:	0a 00 be    	mov.d     w10, w0
    1852:	35 f5 07    	rcall     0x2be <___mulsf3>
    1854:	00 01 be    	mov.d     w0, w2
    1856:	08 00 be    	mov.d     w8, w0
    1858:	67 f5 07    	rcall     0x328
    185a:	00 05 be    	mov.d     w0, w10
    185c:	74 ca bf    	mov.b     0xa74, WREG
    185e:	00 80 fb    	ze        w0, w0
    1860:	cf 80 de    	asr.w     w0, #0xf, w1
    1862:	d1 f5 07    	rcall     0x406
    1864:	d2 cc 2c    	mov.w     #0xcccd, w2
    1866:	c3 dc 23    	mov.w     #0x3dcc, w3
    1868:	2a f5 07    	rcall     0x2be <___mulsf3>
    186a:	00 04 be    	mov.d     w0, w8
    186c:	62 66 26    	mov.w     #0x6666, w2
    186e:	63 f6 23    	mov.w     #0x3f66, w3
    1870:	0a 00 be    	mov.d     w10, w0
    1872:	25 f5 07    	rcall     0x2be <___mulsf3>
    1874:	00 01 be    	mov.d     w0, w2
    1876:	08 00 be    	mov.d     w8, w0
    1878:	57 f5 07    	rcall     0x328
    187a:	00 05 be    	mov.d     w0, w10
    187c:	72 ca bf    	mov.b     0xa72, WREG
    187e:	00 80 fb    	ze        w0, w0
    1880:	cf 80 de    	asr.w     w0, #0xf, w1
    1882:	c1 f5 07    	rcall     0x406
    1884:	d2 cc 2c    	mov.w     #0xcccd, w2
    1886:	c3 dc 23    	mov.w     #0x3dcc, w3
    1888:	1a f5 07    	rcall     0x2be <___mulsf3>
    188a:	00 04 be    	mov.d     w0, w8
    188c:	62 66 26    	mov.w     #0x6666, w2
    188e:	63 f6 23    	mov.w     #0x3f66, w3
    1890:	0a 00 be    	mov.d     w10, w0
    1892:	15 f5 07    	rcall     0x2be <___mulsf3>
    1894:	00 01 be    	mov.d     w0, w2
    1896:	08 00 be    	mov.d     w8, w0
    1898:	47 f5 07    	rcall     0x328
    189a:	10 54 88    	mov.w     w0, 0xa82
    189c:	21 54 88    	mov.w     w1, 0xa84
    189e:	f0 53 88    	mov.w     w0, 0xa7e
    18a0:	01 54 88    	mov.w     w1, 0xa80
    18a2:	c0 52 80    	mov.w     0xa58, w0
    18a4:	e2 0f 50    	sub.w     w0, #0x2, [w15]
    18a6:	74 ff 3a    	bra       NZ, 0x1790 <.L315>
    18a8:	79 ff 37    	bra       0x179c <.L329>

000018aa <.L330>:
    18aa:	ff 4f 50    	sub.b     w0, #0x1f, [w15]
    18ac:	80 ff 3c    	bra       GT, 0x17ae <.L317>
    18ae:	ac 09 ec    	inc.w     0x9ac, WREG
    18b0:	60 4d 88    	mov.w     w0, 0x9ac
    18b2:	e4 0f 50    	sub.w     w0, #0x4, [w15]
    18b4:	7c ff 34    	bra       LE, 0x17ae <.L317>
    18b6:	10 c0 b3    	mov.b     #0x1, w0
    18b8:	64 ea b7    	mov.b     WREG, 0xa64
    18ba:	62 4d 88    	mov.w     w2, 0x9ac
    18bc:	78 ff 37    	bra       0x17ae <.L317>

000018be <_FuncTaskF>:
    18be:	e0 c7 b3    	mov.b     #0x7e, w0
    18c0:	ae e9 b7    	mov.b     WREG, 0x9ae
    18c2:	af 69 ef    	clr.b     0x9af
    18c4:	20 c1 b3    	mov.b     #0x12, w0
    18c6:	b0 e9 b7    	mov.b     WREG, 0x9b0
    18c8:	00 c1 b3    	mov.b     #0x10, w0
    18ca:	b1 e9 b7    	mov.b     WREG, 0x9b1
    18cc:	b2 69 ef    	clr.b     0x9b2
    18ce:	b3 69 ef    	clr.b     0x9b3
    18d0:	30 c1 b3    	mov.b     #0x13, w0
    18d2:	b4 e9 b7    	mov.b     WREG, 0x9b4
    18d4:	20 ca b3    	mov.b     #0xa2, w0
    18d6:	b5 e9 b7    	mov.b     WREG, 0x9b5
    18d8:	b6 69 ef    	clr.b     0x9b6
    18da:	00 c4 b3    	mov.b     #0x40, w0
    18dc:	b7 e9 b7    	mov.b     WREG, 0x9b7
    18de:	60 ca b3    	mov.b     #0xa6, w0
    18e0:	b8 e9 b7    	mov.b     WREG, 0x9b8
    18e2:	a0 cd b3    	mov.b     #0xda, w0
    18e4:	b9 e9 b7    	mov.b     WREG, 0x9b9
    18e6:	7b 40 50    	sub.b     w0, #0x1b, w0
    18e8:	ba e9 b7    	mov.b     WREG, 0x9ba
    18ea:	bb e9 ef    	setm.b    0x9bb
    18ec:	e0 cf b3    	mov.b     #0xfe, w0
    18ee:	bc e9 b7    	mov.b     WREG, 0x9bc
    18f0:	bd 69 ef    	clr.b     0x9bd
    18f2:	be 69 ef    	clr.b     0x9be
    18f4:	10 c4 b3    	mov.b     #0x41, w0
    18f6:	bf e9 b7    	mov.b     WREG, 0x9bf
    18f8:	70 40 50    	sub.b     w0, #0x10, w0
    18fa:	c0 e9 b7    	mov.b     WREG, 0x9c0
    18fc:	50 c1 b3    	mov.b     #0x15, w0
    18fe:	c1 e9 b7    	mov.b     WREG, 0x9c1
    1900:	64 ca bf    	mov.b     0xa64, WREG
    1902:	c2 e9 b7    	mov.b     WREG, 0x9c2
    1904:	c3 69 ef    	clr.b     0x9c3
    1906:	61 01 20    	mov.w     #0x16, w1
    1908:	e0 9a 20    	mov.w     #0x9ae, w0
    190a:	4a 09 07    	rcall     0x2ba0 <_Serial_Send_Frame>
    190c:	d0 00 20    	mov.w     #0xd, w0
    190e:	0e fc 07    	rcall     0x112c <_Delay>
    1910:	61 c1 b3    	mov.b     #0x16, w1
    1912:	e0 9f 20    	mov.w     #0x9fe, w0
    1914:	41 fd 07    	rcall     0x1398 <_read_sensor_frame>
    1916:	00 00 fb    	se        w0, w0
    1918:	70 52 88    	mov.w     w0, 0xa4e
    191a:	4e 0a e2    	cp0.w     0xa4e
    191c:	05 00 3a    	bra       NZ, 0x1928 <.L334>
    191e:	11 a0 20    	mov.w     #0xa01, w1
    1920:	91 40 78    	mov.b     [w1], w1
    1922:	00 c9 b3    	mov.b     #0x90, w0
    1924:	80 cf 50    	sub.b     w1, w0, [w15]
    1926:	04 00 32    	bra       Z, 0x1930 <.L339>

00001928 <.L334>:
    1928:	00 f0 2f    	mov.w     #0xff00, w0
    192a:	c4 22 b6    	and.w     0x2c4
    192c:	c4 a2 a8    	bset.b    0x2c4, #0x5

0000192e <.eb>:
    192e:	00 00 06    	return    

00001930 <.L339>:
    1930:	0e ca bf    	mov.b     0xa0e, WREG
    1932:	63 ea b7    	mov.b     WREG, 0xa63
    1934:	10 ca bf    	mov.b     0xa10, WREG
    1936:	61 ea b7    	mov.b     WREG, 0xa61

00001938 <.bb>:
    1938:	00 f0 2f    	mov.w     #0xff00, w0
    193a:	c4 22 b6    	and.w     0x2c4
    193c:	c4 a2 a8    	bset.b    0x2c4, #0x5

0000193e <.eb>:
    193e:	00 00 06    	return    
    1940:	f7 ff 37    	bra       0x1930 <.L339>

00001942 <_LCD_manual>:
    1942:	88 9f be    	mov.d     w8, [w15++]
    1944:	8a 9f be    	mov.d     w10, [w15++]
    1946:	8c 9f be    	mov.d     w12, [w15++]
    1948:	8e 1f 78    	mov.w     w14, [w15++]
    194a:	18 54 80    	mov.w     0xa82, w8
    194c:	29 54 80    	mov.w     0xa84, w9
    194e:	08 00 be    	mov.d     w8, w0
    1950:	3c f6 07    	rcall     0x5ca <___fixunssfsi>
    1952:	80 46 78    	mov.b     w0, w13
    1954:	02 00 20    	mov.w     #0x0, w2
    1956:	83 2c 24    	mov.w     #0x42c8, w3
    1958:	08 00 be    	mov.d     w8, w0
    195a:	b1 f4 07    	rcall     0x2be <___mulsf3>
    195c:	36 f6 07    	rcall     0x5ca <___fixunssfsi>
    195e:	42 06 20    	mov.w     #0x64, w2
    1960:	11 00 09    	repeat    #0x11
    1962:	02 80 d8    	div.uw    w0, w2
    1964:	01 47 78    	mov.b     w1, w14

00001966 <.bb>:
    1966:	08 f0 2f    	mov.w     #0xff00, w8
    1968:	00 04 fd    	exch      w0, w8
    196a:	dc 22 b6    	and.w     0x2dc
    196c:	00 04 fd    	exch      w0, w8
    196e:	dc 02 a8    	bset.b    0x2dc, #0x0
    1970:	d6 a2 a9    	bclr.b    0x2d6, #0x5
    1972:	cb e2 a9    	bclr.b    0x2cb, #0x7

00001974 <.bb>:
    1974:	d6 82 a8    	bset.b    0x2d6, #0x4
	...
    197c:	d6 82 a9    	bclr.b    0x2d6, #0x4

0000197e <.eb>:
    197e:	80 0c 20    	mov.w     #0xc8, w0
    1980:	01 00 20    	mov.w     #0x0, w1
    1982:	88 0b 07    	rcall     0x3094 <_EE_delay_us>

00001984 <.bb>:
    1984:	00 04 fd    	exch      w0, w8
    1986:	dc 22 b6    	and.w     0x2dc
    1988:	00 04 fd    	exch      w0, w8
    198a:	dc 22 a8    	bset.b    0x2dc, #0x1
    198c:	d6 a2 a9    	bclr.b    0x2d6, #0x5
    198e:	cb e2 a9    	bclr.b    0x2cb, #0x7

00001990 <.bb>:
    1990:	d6 82 a8    	bset.b    0x2d6, #0x4
	...
    1998:	d6 82 a9    	bclr.b    0x2d6, #0x4

0000199a <.eb>:
    199a:	80 0c 20    	mov.w     #0xc8, w0
    199c:	01 00 20    	mov.w     #0x0, w1
    199e:	7a 0b 07    	rcall     0x3094 <_EE_delay_us>

000019a0 <.bb>:
    19a0:	d6 a2 a9    	bclr.b    0x2d6, #0x5
    19a2:	cb e2 a8    	bset.b    0x2cb, #0x7
    19a4:	00 04 fd    	exch      w0, w8
    19a6:	dc 22 b6    	and.w     0x2dc
    19a8:	00 04 fd    	exch      w0, w8
    19aa:	db 04 20    	mov.w     #0x4d, w11
    19ac:	0b 00 fd    	exch      w11, w0
    19ae:	dc 22 b7    	ior.w     0x2dc
    19b0:	0b 00 fd    	exch      w11, w0

000019b2 <.bb>:
    19b2:	d6 82 a8    	bset.b    0x2d6, #0x4
	...
    19ba:	d6 82 a9    	bclr.b    0x2d6, #0x4

000019bc <.eb>:
    19bc:	cb e2 a9    	bclr.b    0x2cb, #0x7
    19be:	80 0c 20    	mov.w     #0xc8, w0
    19c0:	01 00 20    	mov.w     #0x0, w1
    19c2:	68 0b 07    	rcall     0x3094 <_EE_delay_us>

000019c4 <.bb>:
    19c4:	d6 a2 a9    	bclr.b    0x2d6, #0x5
    19c6:	cb e2 a8    	bset.b    0x2cb, #0x7
    19c8:	00 04 fd    	exch      w0, w8
    19ca:	dc 22 b6    	and.w     0x2dc
    19cc:	00 04 fd    	exch      w0, w8
    19ce:	f9 04 20    	mov.w     #0x4f, w9
    19d0:	09 00 fd    	exch      w9, w0
    19d2:	dc 22 b7    	ior.w     0x2dc
    19d4:	09 00 fd    	exch      w9, w0

000019d6 <.bb>:
    19d6:	d6 82 a8    	bset.b    0x2d6, #0x4
	...
    19de:	d6 82 a9    	bclr.b    0x2d6, #0x4

000019e0 <.eb>:
    19e0:	cb e2 a9    	bclr.b    0x2cb, #0x7
    19e2:	80 0c 20    	mov.w     #0xc8, w0
    19e4:	01 00 20    	mov.w     #0x0, w1
    19e6:	56 0b 07    	rcall     0x3094 <_EE_delay_us>

000019e8 <.bb>:
    19e8:	d6 a2 a9    	bclr.b    0x2d6, #0x5
    19ea:	cb e2 a8    	bset.b    0x2cb, #0x7
    19ec:	00 04 fd    	exch      w0, w8
    19ee:	dc 22 b6    	and.w     0x2dc
    19f0:	00 04 fd    	exch      w0, w8
    19f2:	40 04 20    	mov.w     #0x44, w0
    19f4:	dc 22 b7    	ior.w     0x2dc

000019f6 <.bb>:
    19f6:	d6 82 a8    	bset.b    0x2d6, #0x4
	...
    19fe:	d6 82 a9    	bclr.b    0x2d6, #0x4

00001a00 <.eb>:
    1a00:	cb e2 a9    	bclr.b    0x2cb, #0x7
    1a02:	80 0c 20    	mov.w     #0xc8, w0
    1a04:	01 00 20    	mov.w     #0x0, w1
    1a06:	46 0b 07    	rcall     0x3094 <_EE_delay_us>

00001a08 <.bb>:
    1a08:	d6 a2 a9    	bclr.b    0x2d6, #0x5
    1a0a:	cb e2 a8    	bset.b    0x2cb, #0x7
    1a0c:	00 04 fd    	exch      w0, w8
    1a0e:	dc 22 b6    	and.w     0x2dc
    1a10:	00 04 fd    	exch      w0, w8
    1a12:	09 00 fd    	exch      w9, w0
    1a14:	dc 22 b7    	ior.w     0x2dc
    1a16:	09 00 fd    	exch      w9, w0

00001a18 <.bb>:
    1a18:	d6 82 a8    	bset.b    0x2d6, #0x4
	...
    1a20:	d6 82 a9    	bclr.b    0x2d6, #0x4

00001a22 <.eb>:
    1a22:	cb e2 a9    	bclr.b    0x2cb, #0x7
    1a24:	80 0c 20    	mov.w     #0xc8, w0
    1a26:	01 00 20    	mov.w     #0x0, w1
    1a28:	35 0b 07    	rcall     0x3094 <_EE_delay_us>

00001a2a <.bb>:
    1a2a:	d6 a2 a9    	bclr.b    0x2d6, #0x5
    1a2c:	cb e2 a8    	bset.b    0x2cb, #0x7
    1a2e:	00 04 fd    	exch      w0, w8
    1a30:	dc 22 b6    	and.w     0x2dc
    1a32:	00 04 fd    	exch      w0, w8
    1a34:	0a 02 20    	mov.w     #0x20, w10
    1a36:	0a 00 fd    	exch      w10, w0
    1a38:	dc 22 b7    	ior.w     0x2dc
    1a3a:	0a 00 fd    	exch      w10, w0

00001a3c <.bb>:
    1a3c:	d6 82 a8    	bset.b    0x2d6, #0x4
	...
    1a44:	d6 82 a9    	bclr.b    0x2d6, #0x4

00001a46 <.eb>:
    1a46:	cb e2 a9    	bclr.b    0x2cb, #0x7
    1a48:	80 0c 20    	mov.w     #0xc8, w0
    1a4a:	01 00 20    	mov.w     #0x0, w1
    1a4c:	23 0b 07    	rcall     0x3094 <_EE_delay_us>

00001a4e <.bb>:
    1a4e:	d6 a2 a9    	bclr.b    0x2d6, #0x5
    1a50:	cb e2 a8    	bset.b    0x2cb, #0x7
    1a52:	00 04 fd    	exch      w0, w8
    1a54:	dc 22 b6    	and.w     0x2dc
    1a56:	00 04 fd    	exch      w0, w8
    1a58:	0b 00 fd    	exch      w11, w0
    1a5a:	dc 22 b7    	ior.w     0x2dc
    1a5c:	0b 00 fd    	exch      w11, w0

00001a5e <.bb>:
    1a5e:	d6 82 a8    	bset.b    0x2d6, #0x4
	...
    1a66:	d6 82 a9    	bclr.b    0x2d6, #0x4

00001a68 <.eb>:
    1a68:	cb e2 a9    	bclr.b    0x2cb, #0x7
    1a6a:	80 0c 20    	mov.w     #0xc8, w0
    1a6c:	01 00 20    	mov.w     #0x0, w1
    1a6e:	12 0b 07    	rcall     0x3094 <_EE_delay_us>

00001a70 <.bb>:
    1a70:	d6 a2 a9    	bclr.b    0x2d6, #0x5
    1a72:	cb e2 a8    	bset.b    0x2cb, #0x7
    1a74:	00 04 fd    	exch      w0, w8
    1a76:	dc 22 b6    	and.w     0x2dc
    1a78:	00 04 fd    	exch      w0, w8
    1a7a:	ee 84 54    	sub.w     w9, #0xe, w9
    1a7c:	09 00 fd    	exch      w9, w0
    1a7e:	dc 22 b7    	ior.w     0x2dc
    1a80:	09 00 fd    	exch      w9, w0

00001a82 <.bb>:
    1a82:	d6 82 a8    	bset.b    0x2d6, #0x4
	...
    1a8a:	d6 82 a9    	bclr.b    0x2d6, #0x4

00001a8c <.eb>:
    1a8c:	cb e2 a9    	bclr.b    0x2cb, #0x7
    1a8e:	80 0c 20    	mov.w     #0xc8, w0
    1a90:	01 00 20    	mov.w     #0x0, w1
    1a92:	00 0b 07    	rcall     0x3094 <_EE_delay_us>

00001a94 <.bb>:
    1a94:	d6 a2 a9    	bclr.b    0x2d6, #0x5
    1a96:	cb e2 a8    	bset.b    0x2cb, #0x7
    1a98:	00 04 fd    	exch      w0, w8
    1a9a:	dc 22 b6    	and.w     0x2dc
    1a9c:	00 04 fd    	exch      w0, w8
    1a9e:	e0 04 20    	mov.w     #0x4e, w0
    1aa0:	dc 22 b7    	ior.w     0x2dc

00001aa2 <.bb>:
    1aa2:	d6 82 a8    	bset.b    0x2d6, #0x4
	...
    1aaa:	d6 82 a9    	bclr.b    0x2d6, #0x4

00001aac <.eb>:
    1aac:	cb e2 a9    	bclr.b    0x2cb, #0x7
    1aae:	80 0c 20    	mov.w     #0xc8, w0
    1ab0:	01 00 20    	mov.w     #0x0, w1
    1ab2:	f0 0a 07    	rcall     0x3094 <_EE_delay_us>

00001ab4 <.bb>:
    1ab4:	d6 a2 a9    	bclr.b    0x2d6, #0x5
    1ab6:	cb e2 a8    	bset.b    0x2cb, #0x7
    1ab8:	00 04 fd    	exch      w0, w8
    1aba:	dc 22 b6    	and.w     0x2dc
    1abc:	00 04 fd    	exch      w0, w8
    1abe:	5c 05 20    	mov.w     #0x55, w12
    1ac0:	0c 00 fd    	exch      w12, w0
    1ac2:	dc 22 b7    	ior.w     0x2dc
    1ac4:	0c 00 fd    	exch      w12, w0

00001ac6 <.bb>:
    1ac6:	d6 82 a8    	bset.b    0x2d6, #0x4
	...
    1ace:	d6 82 a9    	bclr.b    0x2d6, #0x4

00001ad0 <.eb>:
    1ad0:	cb e2 a9    	bclr.b    0x2cb, #0x7
    1ad2:	80 0c 20    	mov.w     #0xc8, w0
    1ad4:	01 00 20    	mov.w     #0x0, w1
    1ad6:	de 0a 07    	rcall     0x3094 <_EE_delay_us>

00001ad8 <.bb>:
    1ad8:	d6 a2 a9    	bclr.b    0x2d6, #0x5
    1ada:	cb e2 a8    	bset.b    0x2cb, #0x7
    1adc:	00 04 fd    	exch      w0, w8
    1ade:	dc 22 b6    	and.w     0x2dc
    1ae0:	00 04 fd    	exch      w0, w8
    1ae2:	09 00 fd    	exch      w9, w0
    1ae4:	dc 22 b7    	ior.w     0x2dc
    1ae6:	09 00 fd    	exch      w9, w0

00001ae8 <.bb>:
    1ae8:	d6 82 a8    	bset.b    0x2d6, #0x4
	...
    1af0:	d6 82 a9    	bclr.b    0x2d6, #0x4

00001af2 <.eb>:
    1af2:	cb e2 a9    	bclr.b    0x2cb, #0x7
    1af4:	80 0c 20    	mov.w     #0xc8, w0
    1af6:	01 00 20    	mov.w     #0x0, w1
    1af8:	cd 0a 07    	rcall     0x3094 <_EE_delay_us>

00001afa <.bb>:
    1afa:	d6 a2 a9    	bclr.b    0x2d6, #0x5
    1afc:	cb e2 a8    	bset.b    0x2cb, #0x7
    1afe:	00 04 fd    	exch      w0, w8
    1b00:	dc 22 b6    	and.w     0x2dc
    1b02:	00 04 fd    	exch      w0, w8
    1b04:	c0 04 20    	mov.w     #0x4c, w0
    1b06:	dc 22 b7    	ior.w     0x2dc

00001b08 <.bb>:
    1b08:	d6 82 a8    	bset.b    0x2d6, #0x4
	...
    1b10:	d6 82 a9    	bclr.b    0x2d6, #0x4

00001b12 <.eb>:
    1b12:	cb e2 a9    	bclr.b    0x2cb, #0x7
    1b14:	80 0c 20    	mov.w     #0xc8, w0
    1b16:	01 00 20    	mov.w     #0x0, w1
    1b18:	bd 0a 07    	rcall     0x3094 <_EE_delay_us>

00001b1a <.bb>:
    1b1a:	d6 a2 a9    	bclr.b    0x2d6, #0x5
    1b1c:	cb e2 a8    	bset.b    0x2cb, #0x7
    1b1e:	00 04 fd    	exch      w0, w8
    1b20:	dc 22 b6    	and.w     0x2dc
    1b22:	00 04 fd    	exch      w0, w8
    1b24:	0a 00 fd    	exch      w10, w0
    1b26:	dc 22 b7    	ior.w     0x2dc
    1b28:	0a 00 fd    	exch      w10, w0

00001b2a <.bb>:
    1b2a:	d6 82 a8    	bset.b    0x2d6, #0x4
	...
    1b32:	d6 82 a9    	bclr.b    0x2d6, #0x4

00001b34 <.eb>:
    1b34:	cb e2 a9    	bclr.b    0x2cb, #0x7
    1b36:	80 0c 20    	mov.w     #0xc8, w0
    1b38:	01 00 20    	mov.w     #0x0, w1
    1b3a:	ac 0a 07    	rcall     0x3094 <_EE_delay_us>

00001b3c <.bb>:
    1b3c:	d6 a2 a9    	bclr.b    0x2d6, #0x5
    1b3e:	cb e2 a8    	bset.b    0x2cb, #0x7
    1b40:	00 04 fd    	exch      w0, w8
    1b42:	dc 22 b6    	and.w     0x2dc
    1b44:	00 04 fd    	exch      w0, w8
    1b46:	0a 00 fd    	exch      w10, w0
    1b48:	dc 22 b7    	ior.w     0x2dc
    1b4a:	0a 00 fd    	exch      w10, w0

00001b4c <.bb>:
    1b4c:	d6 82 a8    	bset.b    0x2d6, #0x4
	...
    1b54:	d6 82 a9    	bclr.b    0x2d6, #0x4

00001b56 <.eb>:
    1b56:	cb e2 a9    	bclr.b    0x2cb, #0x7
    1b58:	80 0c 20    	mov.w     #0xc8, w0
    1b5a:	01 00 20    	mov.w     #0x0, w1
    1b5c:	9b 0a 07    	rcall     0x3094 <_EE_delay_us>

00001b5e <.bb>:
    1b5e:	d6 a2 a9    	bclr.b    0x2d6, #0x5
    1b60:	cb e2 a8    	bset.b    0x2cb, #0x7
    1b62:	00 04 fd    	exch      w0, w8
    1b64:	dc 22 b6    	and.w     0x2dc
    1b66:	00 04 fd    	exch      w0, w8
    1b68:	20 05 20    	mov.w     #0x52, w0
    1b6a:	dc 22 b7    	ior.w     0x2dc

00001b6c <.bb>:
    1b6c:	d6 82 a8    	bset.b    0x2d6, #0x4
	...
    1b74:	d6 82 a9    	bclr.b    0x2d6, #0x4

00001b76 <.eb>:
    1b76:	cb e2 a9    	bclr.b    0x2cb, #0x7
    1b78:	80 0c 20    	mov.w     #0xc8, w0
    1b7a:	01 00 20    	mov.w     #0x0, w1
    1b7c:	8b 0a 07    	rcall     0x3094 <_EE_delay_us>

00001b7e <.bb>:
    1b7e:	d6 a2 a9    	bclr.b    0x2d6, #0x5
    1b80:	cb e2 a8    	bset.b    0x2cb, #0x7
    1b82:	00 04 fd    	exch      w0, w8
    1b84:	dc 22 b6    	and.w     0x2dc
    1b86:	00 04 fd    	exch      w0, w8
    1b88:	e7 84 54    	sub.w     w9, #0x7, w9
    1b8a:	09 00 fd    	exch      w9, w0
    1b8c:	dc 22 b7    	ior.w     0x2dc
    1b8e:	09 00 fd    	exch      w9, w0

00001b90 <.bb>:
    1b90:	d6 82 a8    	bset.b    0x2d6, #0x4
	...
    1b98:	d6 82 a9    	bclr.b    0x2d6, #0x4

00001b9a <.eb>:
    1b9a:	cb e2 a9    	bclr.b    0x2cb, #0x7
    1b9c:	80 0c 20    	mov.w     #0xc8, w0
    1b9e:	01 00 20    	mov.w     #0x0, w1
    1ba0:	79 0a 07    	rcall     0x3094 <_EE_delay_us>

00001ba2 <.eb>:
    1ba2:	64 ca bf    	mov.b     0xa64, WREG
    1ba4:	00 43 b0    	add.b     #0x30, w0

00001ba6 <.bb>:
    1ba6:	d6 a2 a9    	bclr.b    0x2d6, #0x5
    1ba8:	cb e2 a8    	bset.b    0x2cb, #0x7
    1baa:	00 04 fd    	exch      w0, w8
    1bac:	dc 22 b6    	and.w     0x2dc
    1bae:	00 04 fd    	exch      w0, w8
    1bb0:	00 00 fb    	se        w0, w0
    1bb2:	dc 22 b7    	ior.w     0x2dc

00001bb4 <.bb>:
    1bb4:	d6 82 a8    	bset.b    0x2d6, #0x4
	...
    1bbc:	d6 82 a9    	bclr.b    0x2d6, #0x4

00001bbe <.eb>:
    1bbe:	cb e2 a9    	bclr.b    0x2cb, #0x7
    1bc0:	80 0c 20    	mov.w     #0xc8, w0
    1bc2:	01 00 20    	mov.w     #0x0, w1
    1bc4:	67 0a 07    	rcall     0x3094 <_EE_delay_us>

00001bc6 <.bb>:
    1bc6:	00 04 fd    	exch      w0, w8
    1bc8:	dc 22 b6    	and.w     0x2dc
    1bca:	00 04 fd    	exch      w0, w8
    1bcc:	00 0c 20    	mov.w     #0xc0, w0
    1bce:	dc 22 b7    	ior.w     0x2dc
    1bd0:	d6 a2 a9    	bclr.b    0x2d6, #0x5
    1bd2:	cb e2 a9    	bclr.b    0x2cb, #0x7

00001bd4 <.bb>:
    1bd4:	d6 82 a8    	bset.b    0x2d6, #0x4
	...
    1bdc:	d6 82 a9    	bclr.b    0x2d6, #0x4

00001bde <.eb>:
    1bde:	80 0c 20    	mov.w     #0xc8, w0
    1be0:	01 00 20    	mov.w     #0x0, w1
    1be2:	58 0a 07    	rcall     0x3094 <_EE_delay_us>

00001be4 <.bb>:
    1be4:	d6 a2 a9    	bclr.b    0x2d6, #0x5
    1be6:	cb e2 a8    	bset.b    0x2cb, #0x7
    1be8:	00 04 fd    	exch      w0, w8
    1bea:	dc 22 b6    	and.w     0x2dc
    1bec:	00 04 fd    	exch      w0, w8
    1bee:	80 04 20    	mov.w     #0x48, w0
    1bf0:	dc 22 b7    	ior.w     0x2dc

00001bf2 <.bb>:
    1bf2:	d6 82 a8    	bset.b    0x2d6, #0x4
	...
    1bfa:	d6 82 a9    	bclr.b    0x2d6, #0x4

00001bfc <.eb>:
    1bfc:	cb e2 a9    	bclr.b    0x2cb, #0x7
    1bfe:	80 0c 20    	mov.w     #0xc8, w0
    1c00:	01 00 20    	mov.w     #0x0, w1
    1c02:	48 0a 07    	rcall     0x3094 <_EE_delay_us>

00001c04 <.bb>:
    1c04:	d6 a2 a9    	bclr.b    0x2d6, #0x5
    1c06:	cb e2 a8    	bset.b    0x2cb, #0x7
    1c08:	00 04 fd    	exch      w0, w8
    1c0a:	dc 22 b6    	and.w     0x2dc
    1c0c:	00 04 fd    	exch      w0, w8
    1c0e:	0c 00 fd    	exch      w12, w0
    1c10:	dc 22 b7    	ior.w     0x2dc
    1c12:	0c 00 fd    	exch      w12, w0

00001c14 <.bb>:
    1c14:	d6 82 a8    	bset.b    0x2d6, #0x4
	...
    1c1c:	d6 82 a9    	bclr.b    0x2d6, #0x4

00001c1e <.eb>:
    1c1e:	cb e2 a9    	bclr.b    0x2cb, #0x7
    1c20:	80 0c 20    	mov.w     #0xc8, w0
    1c22:	01 00 20    	mov.w     #0x0, w1
    1c24:	37 0a 07    	rcall     0x3094 <_EE_delay_us>

00001c26 <.bb>:
    1c26:	d6 a2 a9    	bclr.b    0x2d6, #0x5
    1c28:	cb e2 a8    	bset.b    0x2cb, #0x7
    1c2a:	00 04 fd    	exch      w0, w8
    1c2c:	dc 22 b6    	and.w     0x2dc
    1c2e:	00 04 fd    	exch      w0, w8
    1c30:	0b 00 fd    	exch      w11, w0
    1c32:	dc 22 b7    	ior.w     0x2dc
    1c34:	0b 00 fd    	exch      w11, w0

00001c36 <.bb>:
    1c36:	d6 82 a8    	bset.b    0x2d6, #0x4
	...
    1c3e:	d6 82 a9    	bclr.b    0x2d6, #0x4

00001c40 <.eb>:
    1c40:	cb e2 a9    	bclr.b    0x2cb, #0x7
    1c42:	80 0c 20    	mov.w     #0xc8, w0
    1c44:	01 00 20    	mov.w     #0x0, w1
    1c46:	26 0a 07    	rcall     0x3094 <_EE_delay_us>

00001c48 <.bb>:
    1c48:	d6 a2 a9    	bclr.b    0x2d6, #0x5
    1c4a:	cb e2 a8    	bset.b    0x2cb, #0x7
    1c4c:	00 04 fd    	exch      w0, w8
    1c4e:	dc 22 b6    	and.w     0x2dc
    1c50:	00 04 fd    	exch      w0, w8
    1c52:	09 00 fd    	exch      w9, w0
    1c54:	dc 22 b7    	ior.w     0x2dc
    1c56:	09 00 fd    	exch      w9, w0

00001c58 <.bb>:
    1c58:	d6 82 a8    	bset.b    0x2d6, #0x4
	...
    1c60:	d6 82 a9    	bclr.b    0x2d6, #0x4

00001c62 <.eb>:
    1c62:	cb e2 a9    	bclr.b    0x2cb, #0x7
    1c64:	80 0c 20    	mov.w     #0xc8, w0
    1c66:	01 00 20    	mov.w     #0x0, w1
    1c68:	15 0a 07    	rcall     0x3094 <_EE_delay_us>

00001c6a <.bb>:
    1c6a:	d6 a2 a9    	bclr.b    0x2d6, #0x5
    1c6c:	cb e2 a8    	bset.b    0x2cb, #0x7
    1c6e:	00 04 fd    	exch      w0, w8
    1c70:	dc 22 b6    	and.w     0x2dc
    1c72:	00 04 fd    	exch      w0, w8
    1c74:	0d 00 fb    	se        w13, w0
    1c76:	a9 00 20    	mov.w     #0xa, w9
    1c78:	11 00 09    	repeat    #0x11
    1c7a:	09 00 d8    	div.sw    w0, w9
    1c7c:	81 05 78    	mov.w     w1, w11
    1c7e:	00 43 b0    	add.b     #0x30, w0
    1c80:	00 00 fb    	se        w0, w0
    1c82:	dc 22 b7    	ior.w     0x2dc

00001c84 <.bb>:
    1c84:	d6 82 a8    	bset.b    0x2d6, #0x4
	...
    1c8c:	d6 82 a9    	bclr.b    0x2d6, #0x4

00001c8e <.eb>:
    1c8e:	cb e2 a9    	bclr.b    0x2cb, #0x7
    1c90:	80 0c 20    	mov.w     #0xc8, w0
    1c92:	01 00 20    	mov.w     #0x0, w1
    1c94:	ff 09 07    	rcall     0x3094 <_EE_delay_us>

00001c96 <.bb>:
    1c96:	d6 a2 a9    	bclr.b    0x2d6, #0x5
    1c98:	cb e2 a8    	bset.b    0x2cb, #0x7
    1c9a:	00 04 fd    	exch      w0, w8
    1c9c:	dc 22 b6    	and.w     0x2dc
    1c9e:	00 04 fd    	exch      w0, w8
    1ca0:	01 c3 b3    	mov.b     #0x30, w1
    1ca2:	01 c0 45    	add.b     w11, w1, w0
    1ca4:	00 00 fb    	se        w0, w0
    1ca6:	dc 22 b7    	ior.w     0x2dc

00001ca8 <.bb>:
    1ca8:	d6 82 a8    	bset.b    0x2d6, #0x4
	...
    1cb0:	d6 82 a9    	bclr.b    0x2d6, #0x4

00001cb2 <.eb>:
    1cb2:	cb e2 a9    	bclr.b    0x2cb, #0x7
    1cb4:	80 0c 20    	mov.w     #0xc8, w0
    1cb6:	01 00 20    	mov.w     #0x0, w1
    1cb8:	ed 09 07    	rcall     0x3094 <_EE_delay_us>

00001cba <.bb>:
    1cba:	d6 a2 a9    	bclr.b    0x2d6, #0x5
    1cbc:	cb e2 a8    	bset.b    0x2cb, #0x7
    1cbe:	00 04 fd    	exch      w0, w8
    1cc0:	dc 22 b6    	and.w     0x2dc
    1cc2:	00 04 fd    	exch      w0, w8
    1cc4:	e0 02 20    	mov.w     #0x2e, w0
    1cc6:	dc 22 b7    	ior.w     0x2dc

00001cc8 <.bb>:
    1cc8:	d6 82 a8    	bset.b    0x2d6, #0x4
	...
    1cd0:	d6 82 a9    	bclr.b    0x2d6, #0x4

00001cd2 <.eb>:
    1cd2:	cb e2 a9    	bclr.b    0x2cb, #0x7
    1cd4:	80 0c 20    	mov.w     #0xc8, w0
    1cd6:	01 00 20    	mov.w     #0x0, w1
    1cd8:	dd 09 07    	rcall     0x3094 <_EE_delay_us>

00001cda <.bb>:
    1cda:	d6 a2 a9    	bclr.b    0x2d6, #0x5
    1cdc:	cb e2 a8    	bset.b    0x2cb, #0x7
    1cde:	00 04 fd    	exch      w0, w8
    1ce0:	dc 22 b6    	and.w     0x2dc
    1ce2:	00 04 fd    	exch      w0, w8
    1ce4:	0e 00 fb    	se        w14, w0
    1ce6:	11 00 09    	repeat    #0x11
    1ce8:	09 00 d8    	div.sw    w0, w9
    1cea:	81 04 78    	mov.w     w1, w9
    1cec:	00 43 b0    	add.b     #0x30, w0
    1cee:	00 00 fb    	se        w0, w0
    1cf0:	dc 22 b7    	ior.w     0x2dc

00001cf2 <.bb>:
    1cf2:	d6 82 a8    	bset.b    0x2d6, #0x4
	...
    1cfa:	d6 82 a9    	bclr.b    0x2d6, #0x4

00001cfc <.eb>:
    1cfc:	cb e2 a9    	bclr.b    0x2cb, #0x7
    1cfe:	80 0c 20    	mov.w     #0xc8, w0
    1d00:	01 00 20    	mov.w     #0x0, w1
    1d02:	c8 09 07    	rcall     0x3094 <_EE_delay_us>

00001d04 <.bb>:
    1d04:	d6 a2 a9    	bclr.b    0x2d6, #0x5
    1d06:	cb e2 a8    	bset.b    0x2cb, #0x7
    1d08:	00 04 fd    	exch      w0, w8
    1d0a:	dc 22 b6    	and.w     0x2dc
    1d0c:	00 04 fd    	exch      w0, w8
    1d0e:	01 c3 b3    	mov.b     #0x30, w1
    1d10:	01 c0 44    	add.b     w9, w1, w0
    1d12:	00 00 fb    	se        w0, w0
    1d14:	dc 22 b7    	ior.w     0x2dc

00001d16 <.bb>:
    1d16:	d6 82 a8    	bset.b    0x2d6, #0x4
	...
    1d1e:	d6 82 a9    	bclr.b    0x2d6, #0x4

00001d20 <.eb>:
    1d20:	cb e2 a9    	bclr.b    0x2cb, #0x7
    1d22:	80 0c 20    	mov.w     #0xc8, w0
    1d24:	01 00 20    	mov.w     #0x0, w1
    1d26:	b6 09 07    	rcall     0x3094 <_EE_delay_us>

00001d28 <.bb>:
    1d28:	d6 a2 a9    	bclr.b    0x2d6, #0x5
    1d2a:	cb e2 a8    	bset.b    0x2cb, #0x7
    1d2c:	00 04 fd    	exch      w0, w8
    1d2e:	dc 22 b6    	and.w     0x2dc
    1d30:	00 04 fd    	exch      w0, w8
    1d32:	0a 00 fd    	exch      w10, w0
    1d34:	dc 22 b7    	ior.w     0x2dc
    1d36:	0a 00 fd    	exch      w10, w0

00001d38 <.bb>:
    1d38:	d6 82 a8    	bset.b    0x2d6, #0x4
	...
    1d40:	d6 82 a9    	bclr.b    0x2d6, #0x4

00001d42 <.eb>:
    1d42:	cb e2 a9    	bclr.b    0x2cb, #0x7
    1d44:	80 0c 20    	mov.w     #0xc8, w0
    1d46:	01 00 20    	mov.w     #0x0, w1
    1d48:	a5 09 07    	rcall     0x3094 <_EE_delay_us>

00001d4a <.bb>:
    1d4a:	d6 a2 a9    	bclr.b    0x2d6, #0x5
    1d4c:	cb e2 a8    	bset.b    0x2cb, #0x7
    1d4e:	00 04 fd    	exch      w0, w8
    1d50:	dc 22 b6    	and.w     0x2dc
    1d52:	00 04 fd    	exch      w0, w8
    1d54:	0a 00 fd    	exch      w10, w0
    1d56:	dc 22 b7    	ior.w     0x2dc
    1d58:	0a 00 fd    	exch      w10, w0

00001d5a <.bb>:
    1d5a:	d6 82 a8    	bset.b    0x2d6, #0x4
	...
    1d62:	d6 82 a9    	bclr.b    0x2d6, #0x4

00001d64 <.eb>:
    1d64:	cb e2 a9    	bclr.b    0x2cb, #0x7
    1d66:	80 0c 20    	mov.w     #0xc8, w0
    1d68:	01 00 20    	mov.w     #0x0, w1
    1d6a:	94 09 07    	rcall     0x3094 <_EE_delay_us>

00001d6c <.eb>:
    1d6c:	b0 52 80    	mov.w     0xa56, w0

00001d6e <.bb>:
    1d6e:	d6 a2 a9    	bclr.b    0x2d6, #0x5
    1d70:	cb e2 a8    	bset.b    0x2cb, #0x7
    1d72:	00 04 fd    	exch      w0, w8
    1d74:	dc 22 b6    	and.w     0x2dc
    1d76:	00 04 fd    	exch      w0, w8
    1d78:	00 43 b0    	add.b     #0x30, w0
    1d7a:	00 00 fb    	se        w0, w0
    1d7c:	dc 22 b7    	ior.w     0x2dc

00001d7e <.bb>:
    1d7e:	d6 82 a8    	bset.b    0x2d6, #0x4
	...
    1d86:	d6 82 a9    	bclr.b    0x2d6, #0x4

00001d88 <.eb>:
    1d88:	cb e2 a9    	bclr.b    0x2cb, #0x7
    1d8a:	80 0c 20    	mov.w     #0xc8, w0
    1d8c:	01 00 20    	mov.w     #0x0, w1
    1d8e:	82 09 07    	rcall     0x3094 <_EE_delay_us>

00001d90 <.eb>:
    1d90:	a0 52 80    	mov.w     0xa54, w0

00001d92 <.bb>:
    1d92:	d6 a2 a9    	bclr.b    0x2d6, #0x5
    1d94:	cb e2 a8    	bset.b    0x2cb, #0x7
    1d96:	00 04 fd    	exch      w0, w8
    1d98:	dc 22 b6    	and.w     0x2dc
    1d9a:	00 04 fd    	exch      w0, w8
    1d9c:	00 43 b0    	add.b     #0x30, w0
    1d9e:	00 00 fb    	se        w0, w0
    1da0:	dc 22 b7    	ior.w     0x2dc

00001da2 <.bb>:
    1da2:	d6 82 a8    	bset.b    0x2d6, #0x4
	...
    1daa:	d6 82 a9    	bclr.b    0x2d6, #0x4

00001dac <.eb>:
    1dac:	cb e2 a9    	bclr.b    0x2cb, #0x7
    1dae:	80 0c 20    	mov.w     #0xc8, w0
    1db0:	01 00 20    	mov.w     #0x0, w1
    1db2:	70 09 07    	rcall     0x3094 <_EE_delay_us>

00001db4 <.eb>:
    1db4:	90 52 80    	mov.w     0xa52, w0

00001db6 <.bb>:
    1db6:	d6 a2 a9    	bclr.b    0x2d6, #0x5
    1db8:	cb e2 a8    	bset.b    0x2cb, #0x7
    1dba:	00 04 fd    	exch      w0, w8
    1dbc:	dc 22 b6    	and.w     0x2dc
    1dbe:	00 04 fd    	exch      w0, w8
    1dc0:	00 43 b0    	add.b     #0x30, w0
    1dc2:	00 00 fb    	se        w0, w0
    1dc4:	dc 22 b7    	ior.w     0x2dc

00001dc6 <.bb>:
    1dc6:	d6 82 a8    	bset.b    0x2d6, #0x4
	...
    1dce:	d6 82 a9    	bclr.b    0x2d6, #0x4

00001dd0 <.eb>:
    1dd0:	cb e2 a9    	bclr.b    0x2cb, #0x7
    1dd2:	80 0c 20    	mov.w     #0xc8, w0
    1dd4:	01 00 20    	mov.w     #0x0, w1
    1dd6:	5e 09 07    	rcall     0x3094 <_EE_delay_us>

00001dd8 <.eb>:
    1dd8:	80 52 80    	mov.w     0xa50, w0

00001dda <.bb>:
    1dda:	d6 a2 a9    	bclr.b    0x2d6, #0x5
    1ddc:	cb e2 a8    	bset.b    0x2cb, #0x7
    1dde:	00 04 fd    	exch      w0, w8
    1de0:	dc 22 b6    	and.w     0x2dc
    1de2:	00 04 fd    	exch      w0, w8
    1de4:	00 43 b0    	add.b     #0x30, w0
    1de6:	00 00 fb    	se        w0, w0
    1de8:	dc 22 b7    	ior.w     0x2dc

00001dea <.bb>:
    1dea:	d6 82 a8    	bset.b    0x2d6, #0x4
	...
    1df2:	d6 82 a9    	bclr.b    0x2d6, #0x4

00001df4 <.eb>:
    1df4:	cb e2 a9    	bclr.b    0x2cb, #0x7
    1df6:	80 0c 20    	mov.w     #0xc8, w0
    1df8:	01 00 20    	mov.w     #0x0, w1
    1dfa:	4c 09 07    	rcall     0x3094 <_EE_delay_us>

00001dfc <.eb>:
    1dfc:	70 52 80    	mov.w     0xa4e, w0

00001dfe <.bb>:
    1dfe:	d6 a2 a9    	bclr.b    0x2d6, #0x5
    1e00:	cb e2 a8    	bset.b    0x2cb, #0x7
    1e02:	00 04 fd    	exch      w0, w8
    1e04:	dc 22 b6    	and.w     0x2dc
    1e06:	00 04 fd    	exch      w0, w8
    1e08:	00 43 b0    	add.b     #0x30, w0
    1e0a:	00 00 fb    	se        w0, w0
    1e0c:	dc 22 b7    	ior.w     0x2dc

00001e0e <.bb>:
    1e0e:	d6 82 a8    	bset.b    0x2d6, #0x4
	...
    1e16:	d6 82 a9    	bclr.b    0x2d6, #0x4

00001e18 <.eb>:
    1e18:	cb e2 a9    	bclr.b    0x2cb, #0x7
    1e1a:	80 0c 20    	mov.w     #0xc8, w0
    1e1c:	01 00 20    	mov.w     #0x0, w1
    1e1e:	3a 09 07    	rcall     0x3094 <_EE_delay_us>

00001e20 <.eb>:
    1e20:	4f 07 78    	mov.w     [--w15], w14
    1e22:	4f 06 be    	mov.d     [--w15], w12
    1e24:	4f 05 be    	mov.d     [--w15], w10
    1e26:	4f 04 be    	mov.d     [--w15], w8
    1e28:	00 00 06    	return    

00001e2a <_main>:
    1e2a:	88 1f 78    	mov.w     w8, [w15++]
    1e2c:	45 67 a9    	bclr.b    0x745, #0x3
    1e2e:	00 ce b3    	mov.b     #0xe0, w0
    1e30:	44 67 b6    	and.b     0x744
    1e32:	f0 c3 b3    	mov.b     #0x3f, w0
    1e34:	44 67 b6    	and.b     0x744
    1e36:	30 3a 80    	mov.w     0x746, w0
    1e38:	01 e0 2f    	mov.w     #0xfe00, w1
    1e3a:	01 00 60    	and.w     w0, w1, w0
    1e3c:	e0 04 b3    	ior.w     #0x4e, w0
    1e3e:	30 3a 88    	mov.w     w0, 0x746
    1e40:	e1 fa 07    	rcall     0x1404 <_T1_program>

00001e42 <.bb>:
    1e42:	d2 c2 a8    	bset.b    0x2d2, #0x6
    1e44:	d3 a2 a8    	bset.b    0x2d3, #0x5
    1e46:	c0 e2 a8    	bset.b    0x2c0, #0x7
    1e48:	d2 e2 a8    	bset.b    0x2d2, #0x7
    1e4a:	2a e3 a8    	bset.b    0x32a, #0x7
    1e4c:	61 e0 a8    	bset.b    0x61, #0x7
    1e4e:	62 60 a8    	bset.b    0x62, #0x3
    1e50:	62 e0 a8    	bset.b    0x62, #0x7
    1e52:	62 00 a8    	bset.b    0x62, #0x0
    1e54:	86 60 a8    	bset.b    0x86, #0x3
    1e56:	96 60 a8    	bset.b    0x96, #0x3
    1e58:	00 7c 22    	mov.w     #0x27c0, w0
    1e5a:	c0 59 88    	mov.w     w0, 0xb38

00001e5c <.bb>:
    1e5c:	00 f8 2f    	mov.w     #0xff80, w0
    1e5e:	c4 22 b6    	and.w     0x2c4
    1e60:	c0 22 b6    	and.w     0x2c0

00001e62 <.bb>:
    1e62:	60 09 20    	mov.w     #0x96, w0
    1e64:	01 00 20    	mov.w     #0x0, w1
    1e66:	16 09 07    	rcall     0x3094 <_EE_delay_us>
    1e68:	08 f0 2f    	mov.w     #0xff00, w8
    1e6a:	00 04 fd    	exch      w0, w8
    1e6c:	dc 22 b6    	and.w     0x2dc
    1e6e:	00 04 fd    	exch      w0, w8
    1e70:	d6 a2 a9    	bclr.b    0x2d6, #0x5
    1e72:	cb e2 a9    	bclr.b    0x2cb, #0x7
    1e74:	d6 82 a9    	bclr.b    0x2d6, #0x4
    1e76:	00 19 20    	mov.w     #0x190, w0
    1e78:	01 00 20    	mov.w     #0x0, w1
    1e7a:	0c 09 07    	rcall     0x3094 <_EE_delay_us>
    1e7c:	00 04 fd    	exch      w0, w8
    1e7e:	d8 22 b6    	and.w     0x2d8
    1e80:	00 04 fd    	exch      w0, w8
    1e82:	d2 a2 a9    	bclr.b    0x2d2, #0x5
    1e84:	c7 e2 a9    	bclr.b    0x2c7, #0x7
    1e86:	d2 82 a9    	bclr.b    0x2d2, #0x4
    1e88:	00 04 fd    	exch      w0, w8
    1e8a:	dc 22 b6    	and.w     0x2dc
    1e8c:	00 04 fd    	exch      w0, w8
    1e8e:	80 03 20    	mov.w     #0x38, w0
    1e90:	dc 22 b7    	ior.w     0x2dc

00001e92 <.bb>:
    1e92:	d6 82 a8    	bset.b    0x2d6, #0x4
	...
    1e9a:	d6 82 a9    	bclr.b    0x2d6, #0x4

00001e9c <.eb>:
    1e9c:	40 1f 20    	mov.w     #0x1f4, w0
    1e9e:	01 00 20    	mov.w     #0x0, w1
    1ea0:	f9 08 07    	rcall     0x3094 <_EE_delay_us>
    1ea2:	00 04 fd    	exch      w0, w8
    1ea4:	dc 22 b6    	and.w     0x2dc
    1ea6:	00 04 fd    	exch      w0, w8
    1ea8:	80 03 20    	mov.w     #0x38, w0
    1eaa:	dc 22 b7    	ior.w     0x2dc

00001eac <.bb>:
    1eac:	d6 82 a8    	bset.b    0x2d6, #0x4
	...
    1eb4:	d6 82 a9    	bclr.b    0x2d6, #0x4

00001eb6 <.eb>:
    1eb6:	80 0c 20    	mov.w     #0xc8, w0
    1eb8:	01 00 20    	mov.w     #0x0, w1
    1eba:	ec 08 07    	rcall     0x3094 <_EE_delay_us>
    1ebc:	00 04 fd    	exch      w0, w8
    1ebe:	dc 22 b6    	and.w     0x2dc
    1ec0:	00 04 fd    	exch      w0, w8
    1ec2:	80 03 20    	mov.w     #0x38, w0
    1ec4:	dc 22 b7    	ior.w     0x2dc

00001ec6 <.bb>:
    1ec6:	d6 82 a8    	bset.b    0x2d6, #0x4
	...
    1ece:	d6 82 a9    	bclr.b    0x2d6, #0x4

00001ed0 <.eb>:
    1ed0:	80 0c 20    	mov.w     #0xc8, w0
    1ed2:	01 00 20    	mov.w     #0x0, w1
    1ed4:	df 08 07    	rcall     0x3094 <_EE_delay_us>

00001ed6 <.bb>:
    1ed6:	00 04 fd    	exch      w0, w8
    1ed8:	dc 22 b6    	and.w     0x2dc
    1eda:	00 04 fd    	exch      w0, w8
    1edc:	80 03 20    	mov.w     #0x38, w0
    1ede:	dc 22 b7    	ior.w     0x2dc
    1ee0:	d6 a2 a9    	bclr.b    0x2d6, #0x5
    1ee2:	cb e2 a9    	bclr.b    0x2cb, #0x7

00001ee4 <.bb>:
    1ee4:	d6 82 a8    	bset.b    0x2d6, #0x4
	...
    1eec:	d6 82 a9    	bclr.b    0x2d6, #0x4

00001eee <.eb>:
    1eee:	80 0c 20    	mov.w     #0xc8, w0
    1ef0:	01 00 20    	mov.w     #0x0, w1
    1ef2:	d0 08 07    	rcall     0x3094 <_EE_delay_us>

00001ef4 <.bb>:
    1ef4:	00 04 fd    	exch      w0, w8
    1ef6:	dc 22 b6    	and.w     0x2dc
    1ef8:	00 04 fd    	exch      w0, w8
    1efa:	c0 00 20    	mov.w     #0xc, w0
    1efc:	dc 22 b7    	ior.w     0x2dc
    1efe:	d6 a2 a9    	bclr.b    0x2d6, #0x5
    1f00:	cb e2 a9    	bclr.b    0x2cb, #0x7

00001f02 <.bb>:
    1f02:	d6 82 a8    	bset.b    0x2d6, #0x4
	...
    1f0a:	d6 82 a9    	bclr.b    0x2d6, #0x4

00001f0c <.eb>:
    1f0c:	80 0c 20    	mov.w     #0xc8, w0
    1f0e:	01 00 20    	mov.w     #0x0, w1
    1f10:	c1 08 07    	rcall     0x3094 <_EE_delay_us>

00001f12 <.bb>:
    1f12:	00 04 fd    	exch      w0, w8
    1f14:	dc 22 b6    	and.w     0x2dc
    1f16:	00 04 fd    	exch      w0, w8
    1f18:	60 00 20    	mov.w     #0x6, w0
    1f1a:	dc 22 b7    	ior.w     0x2dc
    1f1c:	d6 a2 a9    	bclr.b    0x2d6, #0x5
    1f1e:	cb e2 a9    	bclr.b    0x2cb, #0x7

00001f20 <.bb>:
    1f20:	d6 82 a8    	bset.b    0x2d6, #0x4
	...
    1f28:	d6 82 a9    	bclr.b    0x2d6, #0x4

00001f2a <.eb>:
    1f2a:	80 0c 20    	mov.w     #0xc8, w0
    1f2c:	01 00 20    	mov.w     #0x0, w1
    1f2e:	b2 08 07    	rcall     0x3094 <_EE_delay_us>

00001f30 <.bb>:
    1f30:	00 04 fd    	exch      w0, w8
    1f32:	dc 22 b6    	and.w     0x2dc
    1f34:	00 04 fd    	exch      w0, w8
    1f36:	dc 02 a8    	bset.b    0x2dc, #0x0
    1f38:	d6 a2 a9    	bclr.b    0x2d6, #0x5
    1f3a:	cb e2 a9    	bclr.b    0x2cb, #0x7

00001f3c <.bb>:
    1f3c:	d6 82 a8    	bset.b    0x2d6, #0x4
	...
    1f44:	d6 82 a9    	bclr.b    0x2d6, #0x4

00001f46 <.eb>:
    1f46:	80 0c 20    	mov.w     #0xc8, w0
    1f48:	01 00 20    	mov.w     #0x0, w1
    1f4a:	a4 08 07    	rcall     0x3094 <_EE_delay_us>

00001f4c <.eb>:
    1f4c:	fa fc 07    	rcall     0x1942 <_LCD_manual>
    1f4e:	32 2b ef    	clr.w     0xb32
    1f50:	30 2b ef    	clr.w     0xb30
    1f52:	2c 83 a9    	bclr.b    0x32c, #0x4
    1f54:	2c a3 a9    	bclr.b    0x32c, #0x5
    1f56:	40 4e 20    	mov.w     #0x4e4, w0
    1f58:	00 19 88    	mov.w     w0, 0x320
    1f5a:	22 23 ef    	clr.w     0x322
    1f5c:	00 02 21    	mov.w     #0x1020, w0
    1f5e:	20 19 88    	mov.w     w0, 0x324
    1f60:	30 23 ef    	clr.w     0x330
    1f62:	48 00 20    	mov.w     #0x4, w8
    1f64:	48 19 88    	mov.w     w8, 0x328
    1f66:	85 a0 a9    	bclr.b    0x85, #0x5
    1f68:	95 a0 a8    	bset.b    0x95, #0x5
    1f6a:	21 e3 a8    	bset.b    0x321, #0x7
    1f6c:	f8 05 07    	rcall     0x2b5e <_Serial_Init>
    1f6e:	62 1c 20    	mov.w     #0x1c6, w2
    1f70:	11 00 20    	mov.w     #0x1, w1
    1f72:	20 00 20    	mov.w     #0x2, w0
    1f74:	6f 08 07    	rcall     0x3054 <_EE_alarm_SetRelAlarm>
    1f76:	62 1c 20    	mov.w     #0x1c6, w2
    1f78:	51 01 20    	mov.w     #0x15, w1
    1f7a:	30 00 20    	mov.w     #0x3, w0
    1f7c:	6b 08 07    	rcall     0x3054 <_EE_alarm_SetRelAlarm>
    1f7e:	62 1c 20    	mov.w     #0x1c6, w2
    1f80:	91 02 20    	mov.w     #0x29, w1
    1f82:	08 00 78    	mov.w     w8, w0
    1f84:	67 08 07    	rcall     0x3054 <_EE_alarm_SetRelAlarm>
    1f86:	62 1c 20    	mov.w     #0x1c6, w2
    1f88:	d1 03 20    	mov.w     #0x3d, w1
    1f8a:	50 00 20    	mov.w     #0x5, w0
    1f8c:	63 08 07    	rcall     0x3054 <_EE_alarm_SetRelAlarm>
    1f8e:	62 1c 20    	mov.w     #0x1c6, w2
    1f90:	11 05 20    	mov.w     #0x51, w1
    1f92:	60 00 20    	mov.w     #0x6, w0
    1f94:	5f 08 07    	rcall     0x3054 <_EE_alarm_SetRelAlarm>
    1f96:	62 1c 20    	mov.w     #0x1c6, w2
    1f98:	51 06 20    	mov.w     #0x65, w1
    1f9a:	70 00 20    	mov.w     #0x7, w0
    1f9c:	5b 08 07    	rcall     0x3054 <_EE_alarm_SetRelAlarm>
    1f9e:	62 1c 20    	mov.w     #0x1c6, w2
    1fa0:	91 07 20    	mov.w     #0x79, w1
    1fa2:	10 00 20    	mov.w     #0x1, w0
    1fa4:	57 08 07    	rcall     0x3054 <_EE_alarm_SetRelAlarm>
    1fa6:	62 1c 20    	mov.w     #0x1c6, w2
    1fa8:	d1 08 20    	mov.w     #0x8d, w1
    1faa:	00 00 eb    	clr.w     w0
    1fac:	53 08 07    	rcall     0x3054 <_EE_alarm_SetRelAlarm>

00001fae <.L347>:
    1fae:	ff ff 37    	bra       .

00001fb0 <_LCD_timer>:
    1fb0:	88 9f be    	mov.d     w8, [w15++]
    1fb2:	8a 9f be    	mov.d     w10, [w15++]
    1fb4:	8c 9f be    	mov.d     w12, [w15++]

00001fb6 <.bb>:
    1fb6:	08 f0 2f    	mov.w     #0xff00, w8
    1fb8:	00 04 fd    	exch      w0, w8
    1fba:	dc 22 b6    	and.w     0x2dc
    1fbc:	00 04 fd    	exch      w0, w8
    1fbe:	dc 02 a8    	bset.b    0x2dc, #0x0
    1fc0:	d6 a2 a9    	bclr.b    0x2d6, #0x5
    1fc2:	cb e2 a9    	bclr.b    0x2cb, #0x7

00001fc4 <.bb>:
    1fc4:	d6 82 a8    	bset.b    0x2d6, #0x4
	...
    1fcc:	d6 82 a9    	bclr.b    0x2d6, #0x4

00001fce <.eb>:
    1fce:	80 0c 20    	mov.w     #0xc8, w0
    1fd0:	01 00 20    	mov.w     #0x0, w1
    1fd2:	60 08 07    	rcall     0x3094 <_EE_delay_us>

00001fd4 <.bb>:
    1fd4:	00 04 fd    	exch      w0, w8
    1fd6:	dc 22 b6    	and.w     0x2dc
    1fd8:	00 04 fd    	exch      w0, w8
    1fda:	dc 22 a8    	bset.b    0x2dc, #0x1
    1fdc:	d6 a2 a9    	bclr.b    0x2d6, #0x5
    1fde:	cb e2 a9    	bclr.b    0x2cb, #0x7

00001fe0 <.bb>:
    1fe0:	d6 82 a8    	bset.b    0x2d6, #0x4
	...
    1fe8:	d6 82 a9    	bclr.b    0x2d6, #0x4

00001fea <.eb>:
    1fea:	80 0c 20    	mov.w     #0xc8, w0
    1fec:	01 00 20    	mov.w     #0x0, w1
    1fee:	52 08 07    	rcall     0x3094 <_EE_delay_us>

00001ff0 <.bb>:
    1ff0:	d6 a2 a9    	bclr.b    0x2d6, #0x5
    1ff2:	cb e2 a8    	bset.b    0x2cb, #0x7
    1ff4:	00 04 fd    	exch      w0, w8
    1ff6:	dc 22 b6    	and.w     0x2dc
    1ff8:	00 04 fd    	exch      w0, w8
    1ffa:	d9 04 20    	mov.w     #0x4d, w9
    1ffc:	09 00 fd    	exch      w9, w0
    1ffe:	dc 22 b7    	ior.w     0x2dc
    2000:	09 00 fd    	exch      w9, w0

00002002 <.bb>:
    2002:	d6 82 a8    	bset.b    0x2d6, #0x4
	...
    200a:	d6 82 a9    	bclr.b    0x2d6, #0x4

0000200c <.eb>:
    200c:	cb e2 a9    	bclr.b    0x2cb, #0x7
    200e:	80 0c 20    	mov.w     #0xc8, w0
    2010:	01 00 20    	mov.w     #0x0, w1
    2012:	40 08 07    	rcall     0x3094 <_EE_delay_us>

00002014 <.bb>:
    2014:	d6 a2 a9    	bclr.b    0x2d6, #0x5
    2016:	cb e2 a8    	bset.b    0x2cb, #0x7
    2018:	00 04 fd    	exch      w0, w8
    201a:	dc 22 b6    	and.w     0x2dc
    201c:	00 04 fd    	exch      w0, w8
    201e:	fc 04 20    	mov.w     #0x4f, w12
    2020:	0c 00 fd    	exch      w12, w0
    2022:	dc 22 b7    	ior.w     0x2dc
    2024:	0c 00 fd    	exch      w12, w0

00002026 <.bb>:
    2026:	d6 82 a8    	bset.b    0x2d6, #0x4
	...
    202e:	d6 82 a9    	bclr.b    0x2d6, #0x4

00002030 <.eb>:
    2030:	cb e2 a9    	bclr.b    0x2cb, #0x7
    2032:	80 0c 20    	mov.w     #0xc8, w0
    2034:	01 00 20    	mov.w     #0x0, w1
    2036:	2e 08 07    	rcall     0x3094 <_EE_delay_us>

00002038 <.bb>:
    2038:	d6 a2 a9    	bclr.b    0x2d6, #0x5
    203a:	cb e2 a8    	bset.b    0x2cb, #0x7
    203c:	00 04 fd    	exch      w0, w8
    203e:	dc 22 b6    	and.w     0x2dc
    2040:	00 04 fd    	exch      w0, w8
    2042:	4d 04 20    	mov.w     #0x44, w13
    2044:	0d 00 fd    	exch      w13, w0
    2046:	dc 22 b7    	ior.w     0x2dc
    2048:	0d 00 fd    	exch      w13, w0

0000204a <.bb>:
    204a:	d6 82 a8    	bset.b    0x2d6, #0x4
	...
    2052:	d6 82 a9    	bclr.b    0x2d6, #0x4

00002054 <.eb>:
    2054:	cb e2 a9    	bclr.b    0x2cb, #0x7
    2056:	80 0c 20    	mov.w     #0xc8, w0
    2058:	01 00 20    	mov.w     #0x0, w1
    205a:	1c 08 07    	rcall     0x3094 <_EE_delay_us>

0000205c <.bb>:
    205c:	d6 a2 a9    	bclr.b    0x2d6, #0x5
    205e:	cb e2 a8    	bset.b    0x2cb, #0x7
    2060:	00 04 fd    	exch      w0, w8
    2062:	dc 22 b6    	and.w     0x2dc
    2064:	00 04 fd    	exch      w0, w8
    2066:	0c 00 fd    	exch      w12, w0
    2068:	dc 22 b7    	ior.w     0x2dc
    206a:	0c 00 fd    	exch      w12, w0

0000206c <.bb>:
    206c:	d6 82 a8    	bset.b    0x2d6, #0x4
	...
    2074:	d6 82 a9    	bclr.b    0x2d6, #0x4

00002076 <.eb>:
    2076:	cb e2 a9    	bclr.b    0x2cb, #0x7
    2078:	80 0c 20    	mov.w     #0xc8, w0
    207a:	01 00 20    	mov.w     #0x0, w1
    207c:	0b 08 07    	rcall     0x3094 <_EE_delay_us>

0000207e <.bb>:
    207e:	d6 a2 a9    	bclr.b    0x2d6, #0x5
    2080:	cb e2 a8    	bset.b    0x2cb, #0x7
    2082:	00 04 fd    	exch      w0, w8
    2084:	dc 22 b6    	and.w     0x2dc
    2086:	00 04 fd    	exch      w0, w8
    2088:	0a 02 20    	mov.w     #0x20, w10
    208a:	0a 00 fd    	exch      w10, w0
    208c:	dc 22 b7    	ior.w     0x2dc
    208e:	0a 00 fd    	exch      w10, w0

00002090 <.bb>:
    2090:	d6 82 a8    	bset.b    0x2d6, #0x4
	...
    2098:	d6 82 a9    	bclr.b    0x2d6, #0x4

0000209a <.eb>:
    209a:	cb e2 a9    	bclr.b    0x2cb, #0x7
    209c:	80 0c 20    	mov.w     #0xc8, w0
    209e:	01 00 20    	mov.w     #0x0, w1
    20a0:	f9 07 07    	rcall     0x3094 <_EE_delay_us>

000020a2 <.bb>:
    20a2:	d6 a2 a9    	bclr.b    0x2d6, #0x5
    20a4:	cb e2 a8    	bset.b    0x2cb, #0x7
    20a6:	00 04 fd    	exch      w0, w8
    20a8:	dc 22 b6    	and.w     0x2dc
    20aa:	00 04 fd    	exch      w0, w8
    20ac:	40 05 20    	mov.w     #0x54, w0
    20ae:	dc 22 b7    	ior.w     0x2dc

000020b0 <.bb>:
    20b0:	d6 82 a8    	bset.b    0x2d6, #0x4
	...
    20b8:	d6 82 a9    	bclr.b    0x2d6, #0x4

000020ba <.eb>:
    20ba:	cb e2 a9    	bclr.b    0x2cb, #0x7
    20bc:	80 0c 20    	mov.w     #0xc8, w0
    20be:	01 00 20    	mov.w     #0x0, w1
    20c0:	e9 07 07    	rcall     0x3094 <_EE_delay_us>

000020c2 <.bb>:
    20c2:	d6 a2 a9    	bclr.b    0x2d6, #0x5
    20c4:	cb e2 a8    	bset.b    0x2cb, #0x7
    20c6:	00 04 fd    	exch      w0, w8
    20c8:	dc 22 b6    	and.w     0x2dc
    20ca:	00 04 fd    	exch      w0, w8
    20cc:	90 04 20    	mov.w     #0x49, w0
    20ce:	dc 22 b7    	ior.w     0x2dc

000020d0 <.bb>:
    20d0:	d6 82 a8    	bset.b    0x2d6, #0x4
	...
    20d8:	d6 82 a9    	bclr.b    0x2d6, #0x4

000020da <.eb>:
    20da:	cb e2 a9    	bclr.b    0x2cb, #0x7
    20dc:	80 0c 20    	mov.w     #0xc8, w0
    20de:	01 00 20    	mov.w     #0x0, w1
    20e0:	d9 07 07    	rcall     0x3094 <_EE_delay_us>

000020e2 <.bb>:
    20e2:	d6 a2 a9    	bclr.b    0x2d6, #0x5
    20e4:	cb e2 a8    	bset.b    0x2cb, #0x7
    20e6:	00 04 fd    	exch      w0, w8
    20e8:	dc 22 b6    	and.w     0x2dc
    20ea:	00 04 fd    	exch      w0, w8
    20ec:	09 00 fd    	exch      w9, w0
    20ee:	dc 22 b7    	ior.w     0x2dc
    20f0:	09 00 fd    	exch      w9, w0

000020f2 <.bb>:
    20f2:	d6 82 a8    	bset.b    0x2d6, #0x4
	...
    20fa:	d6 82 a9    	bclr.b    0x2d6, #0x4

000020fc <.eb>:
    20fc:	cb e2 a9    	bclr.b    0x2cb, #0x7
    20fe:	80 0c 20    	mov.w     #0xc8, w0
    2100:	01 00 20    	mov.w     #0x0, w1
    2102:	c8 07 07    	rcall     0x3094 <_EE_delay_us>

00002104 <.bb>:
    2104:	d6 a2 a9    	bclr.b    0x2d6, #0x5
    2106:	cb e2 a8    	bset.b    0x2cb, #0x7
    2108:	00 04 fd    	exch      w0, w8
    210a:	dc 22 b6    	and.w     0x2dc
    210c:	00 04 fd    	exch      w0, w8
    210e:	e8 84 54    	sub.w     w9, #0x8, w9
    2110:	09 00 fd    	exch      w9, w0
    2112:	dc 22 b7    	ior.w     0x2dc
    2114:	09 00 fd    	exch      w9, w0

00002116 <.bb>:
    2116:	d6 82 a8    	bset.b    0x2d6, #0x4
	...
    211e:	d6 82 a9    	bclr.b    0x2d6, #0x4

00002120 <.eb>:
    2120:	cb e2 a9    	bclr.b    0x2cb, #0x7
    2122:	80 0c 20    	mov.w     #0xc8, w0
    2124:	01 00 20    	mov.w     #0x0, w1
    2126:	b6 07 07    	rcall     0x3094 <_EE_delay_us>

00002128 <.bb>:
    2128:	d6 a2 a9    	bclr.b    0x2d6, #0x5
    212a:	cb e2 a8    	bset.b    0x2cb, #0x7
    212c:	00 04 fd    	exch      w0, w8
    212e:	dc 22 b6    	and.w     0x2dc
    2130:	00 04 fd    	exch      w0, w8
    2132:	2b 05 20    	mov.w     #0x52, w11
    2134:	0b 00 fd    	exch      w11, w0
    2136:	dc 22 b7    	ior.w     0x2dc
    2138:	0b 00 fd    	exch      w11, w0

0000213a <.bb>:
    213a:	d6 82 a8    	bset.b    0x2d6, #0x4
	...
    2142:	d6 82 a9    	bclr.b    0x2d6, #0x4

00002144 <.eb>:
    2144:	cb e2 a9    	bclr.b    0x2cb, #0x7
    2146:	80 0c 20    	mov.w     #0xc8, w0
    2148:	01 00 20    	mov.w     #0x0, w1
    214a:	a4 07 07    	rcall     0x3094 <_EE_delay_us>

0000214c <.bb>:
    214c:	d6 a2 a9    	bclr.b    0x2d6, #0x5
    214e:	cb e2 a8    	bset.b    0x2cb, #0x7
    2150:	00 04 fd    	exch      w0, w8
    2152:	dc 22 b6    	and.w     0x2dc
    2154:	00 04 fd    	exch      w0, w8
    2156:	0a 00 fd    	exch      w10, w0
    2158:	dc 22 b7    	ior.w     0x2dc
    215a:	0a 00 fd    	exch      w10, w0

0000215c <.bb>:
    215c:	d6 82 a8    	bset.b    0x2d6, #0x4
	...
    2164:	d6 82 a9    	bclr.b    0x2d6, #0x4

00002166 <.eb>:
    2166:	cb e2 a9    	bclr.b    0x2cb, #0x7
    2168:	80 0c 20    	mov.w     #0xc8, w0
    216a:	01 00 20    	mov.w     #0x0, w1
    216c:	93 07 07    	rcall     0x3094 <_EE_delay_us>

0000216e <.bb>:
    216e:	00 04 fd    	exch      w0, w8
    2170:	dc 22 b6    	and.w     0x2dc
    2172:	00 04 fd    	exch      w0, w8
    2174:	00 0c 20    	mov.w     #0xc0, w0
    2176:	dc 22 b7    	ior.w     0x2dc
    2178:	d6 a2 a9    	bclr.b    0x2d6, #0x5
    217a:	cb e2 a9    	bclr.b    0x2cb, #0x7

0000217c <.bb>:
    217c:	d6 82 a8    	bset.b    0x2d6, #0x4
	...
    2184:	d6 82 a9    	bclr.b    0x2d6, #0x4

00002186 <.eb>:
    2186:	80 0c 20    	mov.w     #0xc8, w0
    2188:	01 00 20    	mov.w     #0x0, w1
    218a:	84 07 07    	rcall     0x3094 <_EE_delay_us>

0000218c <.bb>:
    218c:	d6 a2 a9    	bclr.b    0x2d6, #0x5
    218e:	cb e2 a8    	bset.b    0x2cb, #0x7
    2190:	00 04 fd    	exch      w0, w8
    2192:	dc 22 b6    	and.w     0x2dc
    2194:	00 04 fd    	exch      w0, w8
    2196:	09 00 fd    	exch      w9, w0
    2198:	dc 22 b7    	ior.w     0x2dc
    219a:	09 00 fd    	exch      w9, w0

0000219c <.bb>:
    219c:	d6 82 a8    	bset.b    0x2d6, #0x4
	...
    21a4:	d6 82 a9    	bclr.b    0x2d6, #0x4

000021a6 <.eb>:
    21a6:	cb e2 a9    	bclr.b    0x2cb, #0x7
    21a8:	80 0c 20    	mov.w     #0xc8, w0
    21aa:	01 00 20    	mov.w     #0x0, w1
    21ac:	73 07 07    	rcall     0x3094 <_EE_delay_us>

000021ae <.bb>:
    21ae:	d6 a2 a9    	bclr.b    0x2d6, #0x5
    21b0:	cb e2 a8    	bset.b    0x2cb, #0x7
    21b2:	00 04 fd    	exch      w0, w8
    21b4:	dc 22 b6    	and.w     0x2dc
    21b6:	00 04 fd    	exch      w0, w8
    21b8:	e0 04 20    	mov.w     #0x4e, w0
    21ba:	dc 22 b7    	ior.w     0x2dc

000021bc <.bb>:
    21bc:	d6 82 a8    	bset.b    0x2d6, #0x4
	...
    21c4:	d6 82 a9    	bclr.b    0x2d6, #0x4

000021c6 <.eb>:
    21c6:	cb e2 a9    	bclr.b    0x2cb, #0x7
    21c8:	80 0c 20    	mov.w     #0xc8, w0
    21ca:	01 00 20    	mov.w     #0x0, w1
    21cc:	63 07 07    	rcall     0x3094 <_EE_delay_us>

000021ce <.bb>:
    21ce:	d6 a2 a9    	bclr.b    0x2d6, #0x5
    21d0:	cb e2 a8    	bset.b    0x2cb, #0x7
    21d2:	00 04 fd    	exch      w0, w8
    21d4:	dc 22 b6    	and.w     0x2dc
    21d6:	00 04 fd    	exch      w0, w8
    21d8:	0a 00 fd    	exch      w10, w0
    21da:	dc 22 b7    	ior.w     0x2dc
    21dc:	0a 00 fd    	exch      w10, w0

000021de <.bb>:
    21de:	d6 82 a8    	bset.b    0x2d6, #0x4
	...
    21e6:	d6 82 a9    	bclr.b    0x2d6, #0x4

000021e8 <.eb>:
    21e8:	cb e2 a9    	bclr.b    0x2cb, #0x7
    21ea:	80 0c 20    	mov.w     #0xc8, w0
    21ec:	01 00 20    	mov.w     #0x0, w1
    21ee:	52 07 07    	rcall     0x3094 <_EE_delay_us>

000021f0 <.bb>:
    21f0:	d6 a2 a9    	bclr.b    0x2d6, #0x5
    21f2:	cb e2 a8    	bset.b    0x2cb, #0x7
    21f4:	00 04 fd    	exch      w0, w8
    21f6:	dc 22 b6    	and.w     0x2dc
    21f8:	00 04 fd    	exch      w0, w8
    21fa:	0d 00 fd    	exch      w13, w0
    21fc:	dc 22 b7    	ior.w     0x2dc
    21fe:	0d 00 fd    	exch      w13, w0

00002200 <.bb>:
    2200:	d6 82 a8    	bset.b    0x2d6, #0x4
	...
    2208:	d6 82 a9    	bclr.b    0x2d6, #0x4

0000220a <.eb>:
    220a:	cb e2 a9    	bclr.b    0x2cb, #0x7
    220c:	80 0c 20    	mov.w     #0xc8, w0
    220e:	01 00 20    	mov.w     #0x0, w1
    2210:	41 07 07    	rcall     0x3094 <_EE_delay_us>

00002212 <.bb>:
    2212:	d6 a2 a9    	bclr.b    0x2d6, #0x5
    2214:	cb e2 a8    	bset.b    0x2cb, #0x7
    2216:	00 04 fd    	exch      w0, w8
    2218:	dc 22 b6    	and.w     0x2dc
    221a:	00 04 fd    	exch      w0, w8
    221c:	09 00 fd    	exch      w9, w0
    221e:	dc 22 b7    	ior.w     0x2dc
    2220:	09 00 fd    	exch      w9, w0

00002222 <.bb>:
    2222:	d6 82 a8    	bset.b    0x2d6, #0x4
	...
    222a:	d6 82 a9    	bclr.b    0x2d6, #0x4

0000222c <.eb>:
    222c:	cb e2 a9    	bclr.b    0x2cb, #0x7
    222e:	80 0c 20    	mov.w     #0xc8, w0
    2230:	01 00 20    	mov.w     #0x0, w1
    2232:	30 07 07    	rcall     0x3094 <_EE_delay_us>

00002234 <.bb>:
    2234:	d6 a2 a9    	bclr.b    0x2d6, #0x5
    2236:	cb e2 a8    	bset.b    0x2cb, #0x7
    2238:	00 04 fd    	exch      w0, w8
    223a:	dc 22 b6    	and.w     0x2dc
    223c:	00 04 fd    	exch      w0, w8
    223e:	30 05 20    	mov.w     #0x53, w0
    2240:	dc 22 b7    	ior.w     0x2dc

00002242 <.bb>:
    2242:	d6 82 a8    	bset.b    0x2d6, #0x4
	...
    224a:	d6 82 a9    	bclr.b    0x2d6, #0x4

0000224c <.eb>:
    224c:	cb e2 a9    	bclr.b    0x2cb, #0x7
    224e:	80 0c 20    	mov.w     #0xc8, w0
    2250:	01 00 20    	mov.w     #0x0, w1
    2252:	20 07 07    	rcall     0x3094 <_EE_delay_us>

00002254 <.bb>:
    2254:	d6 a2 a9    	bclr.b    0x2d6, #0x5
    2256:	cb e2 a8    	bset.b    0x2cb, #0x7
    2258:	00 04 fd    	exch      w0, w8
    225a:	dc 22 b6    	and.w     0x2dc
    225c:	00 04 fd    	exch      w0, w8
    225e:	10 04 20    	mov.w     #0x41, w0
    2260:	dc 22 b7    	ior.w     0x2dc

00002262 <.bb>:
    2262:	d6 82 a8    	bset.b    0x2d6, #0x4
	...
    226a:	d6 82 a9    	bclr.b    0x2d6, #0x4

0000226c <.eb>:
    226c:	cb e2 a9    	bclr.b    0x2cb, #0x7
    226e:	80 0c 20    	mov.w     #0xc8, w0
    2270:	01 00 20    	mov.w     #0x0, w1
    2272:	10 07 07    	rcall     0x3094 <_EE_delay_us>

00002274 <.bb>:
    2274:	d6 a2 a9    	bclr.b    0x2d6, #0x5
    2276:	cb e2 a8    	bset.b    0x2cb, #0x7
    2278:	00 04 fd    	exch      w0, w8
    227a:	dc 22 b6    	and.w     0x2dc
    227c:	00 04 fd    	exch      w0, w8
    227e:	0b 00 fd    	exch      w11, w0
    2280:	dc 22 b7    	ior.w     0x2dc
    2282:	0b 00 fd    	exch      w11, w0

00002284 <.bb>:
    2284:	d6 82 a8    	bset.b    0x2d6, #0x4
	...
    228c:	d6 82 a9    	bclr.b    0x2d6, #0x4

0000228e <.eb>:
    228e:	cb e2 a9    	bclr.b    0x2cb, #0x7
    2290:	80 0c 20    	mov.w     #0xc8, w0
    2292:	01 00 20    	mov.w     #0x0, w1
    2294:	ff 06 07    	rcall     0x3094 <_EE_delay_us>

00002296 <.bb>:
    2296:	d6 a2 a9    	bclr.b    0x2d6, #0x5
    2298:	cb e2 a8    	bset.b    0x2cb, #0x7
    229a:	00 04 fd    	exch      w0, w8
    229c:	dc 22 b6    	and.w     0x2dc
    229e:	00 04 fd    	exch      w0, w8
    22a0:	0b 00 fd    	exch      w11, w0
    22a2:	dc 22 b7    	ior.w     0x2dc
    22a4:	0b 00 fd    	exch      w11, w0

000022a6 <.bb>:
    22a6:	d6 82 a8    	bset.b    0x2d6, #0x4
	...
    22ae:	d6 82 a9    	bclr.b    0x2d6, #0x4

000022b0 <.eb>:
    22b0:	cb e2 a9    	bclr.b    0x2cb, #0x7
    22b2:	80 0c 20    	mov.w     #0xc8, w0
    22b4:	01 00 20    	mov.w     #0x0, w1
    22b6:	ee 06 07    	rcall     0x3094 <_EE_delay_us>

000022b8 <.bb>:
    22b8:	d6 a2 a9    	bclr.b    0x2d6, #0x5
    22ba:	cb e2 a8    	bset.b    0x2cb, #0x7
    22bc:	00 04 fd    	exch      w0, w8
    22be:	dc 22 b6    	and.w     0x2dc
    22c0:	00 04 fd    	exch      w0, w8
    22c2:	0c 00 fd    	exch      w12, w0
    22c4:	dc 22 b7    	ior.w     0x2dc
    22c6:	0c 00 fd    	exch      w12, w0

000022c8 <.bb>:
    22c8:	d6 82 a8    	bset.b    0x2d6, #0x4
	...
    22d0:	d6 82 a9    	bclr.b    0x2d6, #0x4

000022d2 <.eb>:
    22d2:	cb e2 a9    	bclr.b    0x2cb, #0x7
    22d4:	80 0c 20    	mov.w     #0xc8, w0
    22d6:	01 00 20    	mov.w     #0x0, w1
    22d8:	dd 06 07    	rcall     0x3094 <_EE_delay_us>

000022da <.bb>:
    22da:	d6 a2 a9    	bclr.b    0x2d6, #0x5
    22dc:	cb e2 a8    	bset.b    0x2cb, #0x7
    22de:	00 04 fd    	exch      w0, w8
    22e0:	dc 22 b6    	and.w     0x2dc
    22e2:	00 04 fd    	exch      w0, w8
    22e4:	e7 84 44    	add.w     w9, #0x7, w9
    22e6:	09 00 fd    	exch      w9, w0
    22e8:	dc 22 b7    	ior.w     0x2dc
    22ea:	09 00 fd    	exch      w9, w0

000022ec <.bb>:
    22ec:	d6 82 a8    	bset.b    0x2d6, #0x4
	...
    22f4:	d6 82 a9    	bclr.b    0x2d6, #0x4

000022f6 <.eb>:
    22f6:	cb e2 a9    	bclr.b    0x2cb, #0x7
    22f8:	80 0c 20    	mov.w     #0xc8, w0
    22fa:	01 00 20    	mov.w     #0x0, w1
    22fc:	cb 06 07    	rcall     0x3094 <_EE_delay_us>

000022fe <.bb>:
    22fe:	d6 a2 a9    	bclr.b    0x2d6, #0x5
    2300:	cb e2 a8    	bset.b    0x2cb, #0x7
    2302:	00 04 fd    	exch      w0, w8
    2304:	dc 22 b6    	and.w     0x2dc
    2306:	00 04 fd    	exch      w0, w8
    2308:	09 00 fd    	exch      w9, w0
    230a:	dc 22 b7    	ior.w     0x2dc
    230c:	09 00 fd    	exch      w9, w0

0000230e <.bb>:
    230e:	d6 82 a8    	bset.b    0x2d6, #0x4
	...
    2316:	d6 82 a9    	bclr.b    0x2d6, #0x4

00002318 <.eb>:
    2318:	cb e2 a9    	bclr.b    0x2cb, #0x7
    231a:	80 0c 20    	mov.w     #0xc8, w0
    231c:	01 00 20    	mov.w     #0x0, w1
    231e:	ba 06 07    	rcall     0x3094 <_EE_delay_us>

00002320 <.bb>:
    2320:	d6 a2 a9    	bclr.b    0x2d6, #0x5
    2322:	cb e2 a8    	bset.b    0x2cb, #0x7
    2324:	00 04 fd    	exch      w0, w8
    2326:	dc 22 b6    	and.w     0x2dc
    2328:	00 04 fd    	exch      w0, w8
    232a:	0c 00 fd    	exch      w12, w0
    232c:	dc 22 b7    	ior.w     0x2dc
    232e:	0c 00 fd    	exch      w12, w0

00002330 <.bb>:
    2330:	d6 82 a8    	bset.b    0x2d6, #0x4
	...
    2338:	d6 82 a9    	bclr.b    0x2d6, #0x4

0000233a <.eb>:
    233a:	cb e2 a9    	bclr.b    0x2cb, #0x7
    233c:	80 0c 20    	mov.w     #0xc8, w0
    233e:	01 00 20    	mov.w     #0x0, w1
    2340:	a9 06 07    	rcall     0x3094 <_EE_delay_us>

00002342 <.eb>:
    2342:	4f 06 be    	mov.d     [--w15], w12
    2344:	4f 05 be    	mov.d     [--w15], w10
    2346:	4f 04 be    	mov.d     [--w15], w8
    2348:	00 00 06    	return    

0000234a <_LCD_intelligent>:
    234a:	88 9f be    	mov.d     w8, [w15++]
    234c:	8a 9f be    	mov.d     w10, [w15++]
    234e:	8c 9f be    	mov.d     w12, [w15++]
    2350:	18 54 80    	mov.w     0xa82, w8
    2352:	29 54 80    	mov.w     0xa84, w9
    2354:	08 00 be    	mov.d     w8, w0
    2356:	39 f1 07    	rcall     0x5ca <___fixunssfsi>
    2358:	00 46 78    	mov.b     w0, w12
    235a:	02 00 20    	mov.w     #0x0, w2
    235c:	83 2c 24    	mov.w     #0x42c8, w3
    235e:	08 00 be    	mov.d     w8, w0
    2360:	ae ef 07    	rcall     0x2be <___mulsf3>
    2362:	33 f1 07    	rcall     0x5ca <___fixunssfsi>
    2364:	42 06 20    	mov.w     #0x64, w2
    2366:	11 00 09    	repeat    #0x11
    2368:	02 80 d8    	div.uw    w0, w2
    236a:	81 46 78    	mov.b     w1, w13

0000236c <.bb>:
    236c:	08 f0 2f    	mov.w     #0xff00, w8
    236e:	00 04 fd    	exch      w0, w8
    2370:	dc 22 b6    	and.w     0x2dc
    2372:	00 04 fd    	exch      w0, w8
    2374:	dc 02 a8    	bset.b    0x2dc, #0x0
    2376:	d6 a2 a9    	bclr.b    0x2d6, #0x5
    2378:	cb e2 a9    	bclr.b    0x2cb, #0x7

0000237a <.bb>:
    237a:	d6 82 a8    	bset.b    0x2d6, #0x4
	...
    2382:	d6 82 a9    	bclr.b    0x2d6, #0x4

00002384 <.eb>:
    2384:	80 0c 20    	mov.w     #0xc8, w0
    2386:	01 00 20    	mov.w     #0x0, w1
    2388:	85 06 07    	rcall     0x3094 <_EE_delay_us>

0000238a <.bb>:
    238a:	00 04 fd    	exch      w0, w8
    238c:	dc 22 b6    	and.w     0x2dc
    238e:	00 04 fd    	exch      w0, w8
    2390:	dc 22 a8    	bset.b    0x2dc, #0x1
    2392:	d6 a2 a9    	bclr.b    0x2d6, #0x5
    2394:	cb e2 a9    	bclr.b    0x2cb, #0x7

00002396 <.bb>:
    2396:	d6 82 a8    	bset.b    0x2d6, #0x4
	...
    239e:	d6 82 a9    	bclr.b    0x2d6, #0x4

000023a0 <.eb>:
    23a0:	80 0c 20    	mov.w     #0xc8, w0
    23a2:	01 00 20    	mov.w     #0x0, w1
    23a4:	77 06 07    	rcall     0x3094 <_EE_delay_us>

000023a6 <.bb>:
    23a6:	d6 a2 a9    	bclr.b    0x2d6, #0x5
    23a8:	cb e2 a8    	bset.b    0x2cb, #0x7
    23aa:	00 04 fd    	exch      w0, w8
    23ac:	dc 22 b6    	and.w     0x2dc
    23ae:	00 04 fd    	exch      w0, w8
    23b0:	db 04 20    	mov.w     #0x4d, w11
    23b2:	0b 00 fd    	exch      w11, w0
    23b4:	dc 22 b7    	ior.w     0x2dc
    23b6:	0b 00 fd    	exch      w11, w0

000023b8 <.bb>:
    23b8:	d6 82 a8    	bset.b    0x2d6, #0x4
	...
    23c0:	d6 82 a9    	bclr.b    0x2d6, #0x4

000023c2 <.eb>:
    23c2:	cb e2 a9    	bclr.b    0x2cb, #0x7
    23c4:	80 0c 20    	mov.w     #0xc8, w0
    23c6:	01 00 20    	mov.w     #0x0, w1
    23c8:	65 06 07    	rcall     0x3094 <_EE_delay_us>

000023ca <.bb>:
    23ca:	d6 a2 a9    	bclr.b    0x2d6, #0x5
    23cc:	cb e2 a8    	bset.b    0x2cb, #0x7
    23ce:	00 04 fd    	exch      w0, w8
    23d0:	dc 22 b6    	and.w     0x2dc
    23d2:	00 04 fd    	exch      w0, w8
    23d4:	f9 04 20    	mov.w     #0x4f, w9
    23d6:	09 00 fd    	exch      w9, w0
    23d8:	dc 22 b7    	ior.w     0x2dc
    23da:	09 00 fd    	exch      w9, w0

000023dc <.bb>:
    23dc:	d6 82 a8    	bset.b    0x2d6, #0x4
	...
    23e4:	d6 82 a9    	bclr.b    0x2d6, #0x4

000023e6 <.eb>:
    23e6:	cb e2 a9    	bclr.b    0x2cb, #0x7
    23e8:	80 0c 20    	mov.w     #0xc8, w0
    23ea:	01 00 20    	mov.w     #0x0, w1
    23ec:	53 06 07    	rcall     0x3094 <_EE_delay_us>

000023ee <.bb>:
    23ee:	d6 a2 a9    	bclr.b    0x2d6, #0x5
    23f0:	cb e2 a8    	bset.b    0x2cb, #0x7
    23f2:	00 04 fd    	exch      w0, w8
    23f4:	dc 22 b6    	and.w     0x2dc
    23f6:	00 04 fd    	exch      w0, w8
    23f8:	40 04 20    	mov.w     #0x44, w0
    23fa:	dc 22 b7    	ior.w     0x2dc

000023fc <.bb>:
    23fc:	d6 82 a8    	bset.b    0x2d6, #0x4
	...
    2404:	d6 82 a9    	bclr.b    0x2d6, #0x4

00002406 <.eb>:
    2406:	cb e2 a9    	bclr.b    0x2cb, #0x7
    2408:	80 0c 20    	mov.w     #0xc8, w0
    240a:	01 00 20    	mov.w     #0x0, w1
    240c:	43 06 07    	rcall     0x3094 <_EE_delay_us>

0000240e <.bb>:
    240e:	d6 a2 a9    	bclr.b    0x2d6, #0x5
    2410:	cb e2 a8    	bset.b    0x2cb, #0x7
    2412:	00 04 fd    	exch      w0, w8
    2414:	dc 22 b6    	and.w     0x2dc
    2416:	00 04 fd    	exch      w0, w8
    2418:	09 00 fd    	exch      w9, w0
    241a:	dc 22 b7    	ior.w     0x2dc
    241c:	09 00 fd    	exch      w9, w0

0000241e <.bb>:
    241e:	d6 82 a8    	bset.b    0x2d6, #0x4
	...
    2426:	d6 82 a9    	bclr.b    0x2d6, #0x4

00002428 <.eb>:
    2428:	cb e2 a9    	bclr.b    0x2cb, #0x7
    242a:	80 0c 20    	mov.w     #0xc8, w0
    242c:	01 00 20    	mov.w     #0x0, w1
    242e:	32 06 07    	rcall     0x3094 <_EE_delay_us>

00002430 <.bb>:
    2430:	d6 a2 a9    	bclr.b    0x2d6, #0x5
    2432:	cb e2 a8    	bset.b    0x2cb, #0x7
    2434:	00 04 fd    	exch      w0, w8
    2436:	dc 22 b6    	and.w     0x2dc
    2438:	00 04 fd    	exch      w0, w8
    243a:	0a 02 20    	mov.w     #0x20, w10
    243c:	0a 00 fd    	exch      w10, w0
    243e:	dc 22 b7    	ior.w     0x2dc
    2440:	0a 00 fd    	exch      w10, w0

00002442 <.bb>:
    2442:	d6 82 a8    	bset.b    0x2d6, #0x4
	...
    244a:	d6 82 a9    	bclr.b    0x2d6, #0x4

0000244c <.eb>:
    244c:	cb e2 a9    	bclr.b    0x2cb, #0x7
    244e:	80 0c 20    	mov.w     #0xc8, w0
    2450:	01 00 20    	mov.w     #0x0, w1
    2452:	20 06 07    	rcall     0x3094 <_EE_delay_us>

00002454 <.bb>:
    2454:	d6 a2 a9    	bclr.b    0x2d6, #0x5
    2456:	cb e2 a8    	bset.b    0x2cb, #0x7
    2458:	00 04 fd    	exch      w0, w8
    245a:	dc 22 b6    	and.w     0x2dc
    245c:	00 04 fd    	exch      w0, w8
    245e:	90 04 20    	mov.w     #0x49, w0
    2460:	dc 22 b7    	ior.w     0x2dc

00002462 <.bb>:
    2462:	d6 82 a8    	bset.b    0x2d6, #0x4
	...
    246a:	d6 82 a9    	bclr.b    0x2d6, #0x4

0000246c <.eb>:
    246c:	cb e2 a9    	bclr.b    0x2cb, #0x7
    246e:	80 0c 20    	mov.w     #0xc8, w0
    2470:	01 00 20    	mov.w     #0x0, w1
    2472:	10 06 07    	rcall     0x3094 <_EE_delay_us>

00002474 <.bb>:
    2474:	d6 a2 a9    	bclr.b    0x2d6, #0x5
    2476:	cb e2 a8    	bset.b    0x2cb, #0x7
    2478:	00 04 fd    	exch      w0, w8
    247a:	dc 22 b6    	and.w     0x2dc
    247c:	00 04 fd    	exch      w0, w8
    247e:	e0 04 20    	mov.w     #0x4e, w0
    2480:	dc 22 b7    	ior.w     0x2dc

00002482 <.bb>:
    2482:	d6 82 a8    	bset.b    0x2d6, #0x4
	...
    248a:	d6 82 a9    	bclr.b    0x2d6, #0x4

0000248c <.eb>:
    248c:	cb e2 a9    	bclr.b    0x2cb, #0x7
    248e:	80 0c 20    	mov.w     #0xc8, w0
    2490:	01 00 20    	mov.w     #0x0, w1
    2492:	00 06 07    	rcall     0x3094 <_EE_delay_us>

00002494 <.bb>:
    2494:	d6 a2 a9    	bclr.b    0x2d6, #0x5
    2496:	cb e2 a8    	bset.b    0x2cb, #0x7
    2498:	00 04 fd    	exch      w0, w8
    249a:	dc 22 b6    	and.w     0x2dc
    249c:	00 04 fd    	exch      w0, w8
    249e:	40 05 20    	mov.w     #0x54, w0
    24a0:	dc 22 b7    	ior.w     0x2dc

000024a2 <.bb>:
    24a2:	d6 82 a8    	bset.b    0x2d6, #0x4
	...
    24aa:	d6 82 a9    	bclr.b    0x2d6, #0x4

000024ac <.eb>:
    24ac:	cb e2 a9    	bclr.b    0x2cb, #0x7
    24ae:	80 0c 20    	mov.w     #0xc8, w0
    24b0:	01 00 20    	mov.w     #0x0, w1
    24b2:	f0 05 07    	rcall     0x3094 <_EE_delay_us>

000024b4 <.bb>:
    24b4:	d6 a2 a9    	bclr.b    0x2d6, #0x5
    24b6:	cb e2 a8    	bset.b    0x2cb, #0x7
    24b8:	00 04 fd    	exch      w0, w8
    24ba:	dc 22 b6    	and.w     0x2dc
    24bc:	00 04 fd    	exch      w0, w8
    24be:	0a 00 fd    	exch      w10, w0
    24c0:	dc 22 b7    	ior.w     0x2dc
    24c2:	0a 00 fd    	exch      w10, w0

000024c4 <.bb>:
    24c4:	d6 82 a8    	bset.b    0x2d6, #0x4
	...
    24cc:	d6 82 a9    	bclr.b    0x2d6, #0x4

000024ce <.eb>:
    24ce:	cb e2 a9    	bclr.b    0x2cb, #0x7
    24d0:	80 0c 20    	mov.w     #0xc8, w0
    24d2:	01 00 20    	mov.w     #0x0, w1
    24d4:	df 05 07    	rcall     0x3094 <_EE_delay_us>

000024d6 <.bb>:
    24d6:	d6 a2 a9    	bclr.b    0x2d6, #0x5
    24d8:	cb e2 a8    	bset.b    0x2cb, #0x7
    24da:	00 04 fd    	exch      w0, w8
    24dc:	dc 22 b6    	and.w     0x2dc
    24de:	00 04 fd    	exch      w0, w8
    24e0:	0a 00 fd    	exch      w10, w0
    24e2:	dc 22 b7    	ior.w     0x2dc
    24e4:	0a 00 fd    	exch      w10, w0

000024e6 <.bb>:
    24e6:	d6 82 a8    	bset.b    0x2d6, #0x4
	...
    24ee:	d6 82 a9    	bclr.b    0x2d6, #0x4

000024f0 <.eb>:
    24f0:	cb e2 a9    	bclr.b    0x2cb, #0x7
    24f2:	80 0c 20    	mov.w     #0xc8, w0
    24f4:	01 00 20    	mov.w     #0x0, w1
    24f6:	ce 05 07    	rcall     0x3094 <_EE_delay_us>

000024f8 <.bb>:
    24f8:	d6 a2 a9    	bclr.b    0x2d6, #0x5
    24fa:	cb e2 a8    	bset.b    0x2cb, #0x7
    24fc:	00 04 fd    	exch      w0, w8
    24fe:	dc 22 b6    	and.w     0x2dc
    2500:	00 04 fd    	exch      w0, w8
    2502:	20 05 20    	mov.w     #0x52, w0
    2504:	dc 22 b7    	ior.w     0x2dc

00002506 <.bb>:
    2506:	d6 82 a8    	bset.b    0x2d6, #0x4
	...
    250e:	d6 82 a9    	bclr.b    0x2d6, #0x4

00002510 <.eb>:
    2510:	cb e2 a9    	bclr.b    0x2cb, #0x7
    2512:	80 0c 20    	mov.w     #0xc8, w0
    2514:	01 00 20    	mov.w     #0x0, w1
    2516:	be 05 07    	rcall     0x3094 <_EE_delay_us>

00002518 <.bb>:
    2518:	d6 a2 a9    	bclr.b    0x2d6, #0x5
    251a:	cb e2 a8    	bset.b    0x2cb, #0x7
    251c:	00 04 fd    	exch      w0, w8
    251e:	dc 22 b6    	and.w     0x2dc
    2520:	00 04 fd    	exch      w0, w8
    2522:	f5 84 54    	sub.w     w9, #0x15, w9
    2524:	09 00 fd    	exch      w9, w0
    2526:	dc 22 b7    	ior.w     0x2dc
    2528:	09 00 fd    	exch      w9, w0

0000252a <.bb>:
    252a:	d6 82 a8    	bset.b    0x2d6, #0x4
	...
    2532:	d6 82 a9    	bclr.b    0x2d6, #0x4

00002534 <.eb>:
    2534:	cb e2 a9    	bclr.b    0x2cb, #0x7
    2536:	80 0c 20    	mov.w     #0xc8, w0
    2538:	01 00 20    	mov.w     #0x0, w1
    253a:	ac 05 07    	rcall     0x3094 <_EE_delay_us>

0000253c <.eb>:
    253c:	64 ca bf    	mov.b     0xa64, WREG
    253e:	00 43 b0    	add.b     #0x30, w0

00002540 <.bb>:
    2540:	d6 a2 a9    	bclr.b    0x2d6, #0x5
    2542:	cb e2 a8    	bset.b    0x2cb, #0x7
    2544:	00 04 fd    	exch      w0, w8
    2546:	dc 22 b6    	and.w     0x2dc
    2548:	00 04 fd    	exch      w0, w8
    254a:	00 00 fb    	se        w0, w0
    254c:	dc 22 b7    	ior.w     0x2dc

0000254e <.bb>:
    254e:	d6 82 a8    	bset.b    0x2d6, #0x4
	...
    2556:	d6 82 a9    	bclr.b    0x2d6, #0x4

00002558 <.eb>:
    2558:	cb e2 a9    	bclr.b    0x2cb, #0x7
    255a:	80 0c 20    	mov.w     #0xc8, w0
    255c:	01 00 20    	mov.w     #0x0, w1
    255e:	9a 05 07    	rcall     0x3094 <_EE_delay_us>

00002560 <.bb>:
    2560:	00 04 fd    	exch      w0, w8
    2562:	dc 22 b6    	and.w     0x2dc
    2564:	00 04 fd    	exch      w0, w8
    2566:	00 0c 20    	mov.w     #0xc0, w0
    2568:	dc 22 b7    	ior.w     0x2dc
    256a:	d6 a2 a9    	bclr.b    0x2d6, #0x5
    256c:	cb e2 a9    	bclr.b    0x2cb, #0x7

0000256e <.bb>:
    256e:	d6 82 a8    	bset.b    0x2d6, #0x4
	...
    2576:	d6 82 a9    	bclr.b    0x2d6, #0x4

00002578 <.eb>:
    2578:	80 0c 20    	mov.w     #0xc8, w0
    257a:	01 00 20    	mov.w     #0x0, w1
    257c:	8b 05 07    	rcall     0x3094 <_EE_delay_us>

0000257e <.bb>:
    257e:	d6 a2 a9    	bclr.b    0x2d6, #0x5
    2580:	cb e2 a8    	bset.b    0x2cb, #0x7
    2582:	00 04 fd    	exch      w0, w8
    2584:	dc 22 b6    	and.w     0x2dc
    2586:	00 04 fd    	exch      w0, w8
    2588:	80 04 20    	mov.w     #0x48, w0
    258a:	dc 22 b7    	ior.w     0x2dc

0000258c <.bb>:
    258c:	d6 82 a8    	bset.b    0x2d6, #0x4
	...
    2594:	d6 82 a9    	bclr.b    0x2d6, #0x4

00002596 <.eb>:
    2596:	cb e2 a9    	bclr.b    0x2cb, #0x7
    2598:	80 0c 20    	mov.w     #0xc8, w0
    259a:	01 00 20    	mov.w     #0x0, w1
    259c:	7b 05 07    	rcall     0x3094 <_EE_delay_us>

0000259e <.bb>:
    259e:	d6 a2 a9    	bclr.b    0x2d6, #0x5
    25a0:	cb e2 a8    	bset.b    0x2cb, #0x7
    25a2:	00 04 fd    	exch      w0, w8
    25a4:	dc 22 b6    	and.w     0x2dc
    25a6:	00 04 fd    	exch      w0, w8
    25a8:	50 05 20    	mov.w     #0x55, w0
    25aa:	dc 22 b7    	ior.w     0x2dc

000025ac <.bb>:
    25ac:	d6 82 a8    	bset.b    0x2d6, #0x4
	...
    25b4:	d6 82 a9    	bclr.b    0x2d6, #0x4

000025b6 <.eb>:
    25b6:	cb e2 a9    	bclr.b    0x2cb, #0x7
    25b8:	80 0c 20    	mov.w     #0xc8, w0
    25ba:	01 00 20    	mov.w     #0x0, w1
    25bc:	6b 05 07    	rcall     0x3094 <_EE_delay_us>

000025be <.bb>:
    25be:	d6 a2 a9    	bclr.b    0x2d6, #0x5
    25c0:	cb e2 a8    	bset.b    0x2cb, #0x7
    25c2:	00 04 fd    	exch      w0, w8
    25c4:	dc 22 b6    	and.w     0x2dc
    25c6:	00 04 fd    	exch      w0, w8
    25c8:	0b 00 fd    	exch      w11, w0
    25ca:	dc 22 b7    	ior.w     0x2dc
    25cc:	0b 00 fd    	exch      w11, w0

000025ce <.bb>:
    25ce:	d6 82 a8    	bset.b    0x2d6, #0x4
	...
    25d6:	d6 82 a9    	bclr.b    0x2d6, #0x4

000025d8 <.eb>:
    25d8:	cb e2 a9    	bclr.b    0x2cb, #0x7
    25da:	80 0c 20    	mov.w     #0xc8, w0
    25dc:	01 00 20    	mov.w     #0x0, w1
    25de:	5a 05 07    	rcall     0x3094 <_EE_delay_us>

000025e0 <.bb>:
    25e0:	d6 a2 a9    	bclr.b    0x2d6, #0x5
    25e2:	cb e2 a8    	bset.b    0x2cb, #0x7
    25e4:	00 04 fd    	exch      w0, w8
    25e6:	dc 22 b6    	and.w     0x2dc
    25e8:	00 04 fd    	exch      w0, w8
    25ea:	09 00 fd    	exch      w9, w0
    25ec:	dc 22 b7    	ior.w     0x2dc
    25ee:	09 00 fd    	exch      w9, w0

000025f0 <.bb>:
    25f0:	d6 82 a8    	bset.b    0x2d6, #0x4
	...
    25f8:	d6 82 a9    	bclr.b    0x2d6, #0x4

000025fa <.eb>:
    25fa:	cb e2 a9    	bclr.b    0x2cb, #0x7
    25fc:	80 0c 20    	mov.w     #0xc8, w0
    25fe:	01 00 20    	mov.w     #0x0, w1
    2600:	49 05 07    	rcall     0x3094 <_EE_delay_us>

00002602 <.bb>:
    2602:	d6 a2 a9    	bclr.b    0x2d6, #0x5
    2604:	cb e2 a8    	bset.b    0x2cb, #0x7
    2606:	00 04 fd    	exch      w0, w8
    2608:	dc 22 b6    	and.w     0x2dc
    260a:	00 04 fd    	exch      w0, w8
    260c:	0c 00 fb    	se        w12, w0
    260e:	a9 00 20    	mov.w     #0xa, w9
    2610:	11 00 09    	repeat    #0x11
    2612:	09 00 d8    	div.sw    w0, w9
    2614:	81 05 78    	mov.w     w1, w11
    2616:	00 43 b0    	add.b     #0x30, w0
    2618:	00 00 fb    	se        w0, w0
    261a:	dc 22 b7    	ior.w     0x2dc

0000261c <.bb>:
    261c:	d6 82 a8    	bset.b    0x2d6, #0x4
	...
    2624:	d6 82 a9    	bclr.b    0x2d6, #0x4

00002626 <.eb>:
    2626:	cb e2 a9    	bclr.b    0x2cb, #0x7
    2628:	80 0c 20    	mov.w     #0xc8, w0
    262a:	01 00 20    	mov.w     #0x0, w1
    262c:	33 05 07    	rcall     0x3094 <_EE_delay_us>

0000262e <.bb>:
    262e:	d6 a2 a9    	bclr.b    0x2d6, #0x5
    2630:	cb e2 a8    	bset.b    0x2cb, #0x7
    2632:	00 04 fd    	exch      w0, w8
    2634:	dc 22 b6    	and.w     0x2dc
    2636:	00 04 fd    	exch      w0, w8
    2638:	01 c3 b3    	mov.b     #0x30, w1
    263a:	01 c0 45    	add.b     w11, w1, w0
    263c:	00 00 fb    	se        w0, w0
    263e:	dc 22 b7    	ior.w     0x2dc

00002640 <.bb>:
    2640:	d6 82 a8    	bset.b    0x2d6, #0x4
	...
    2648:	d6 82 a9    	bclr.b    0x2d6, #0x4

0000264a <.eb>:
    264a:	cb e2 a9    	bclr.b    0x2cb, #0x7
    264c:	80 0c 20    	mov.w     #0xc8, w0
    264e:	01 00 20    	mov.w     #0x0, w1
    2650:	21 05 07    	rcall     0x3094 <_EE_delay_us>

00002652 <.bb>:
    2652:	d6 a2 a9    	bclr.b    0x2d6, #0x5
    2654:	cb e2 a8    	bset.b    0x2cb, #0x7
    2656:	00 04 fd    	exch      w0, w8
    2658:	dc 22 b6    	and.w     0x2dc
    265a:	00 04 fd    	exch      w0, w8
    265c:	e0 02 20    	mov.w     #0x2e, w0
    265e:	dc 22 b7    	ior.w     0x2dc

00002660 <.bb>:
    2660:	d6 82 a8    	bset.b    0x2d6, #0x4
	...
    2668:	d6 82 a9    	bclr.b    0x2d6, #0x4

0000266a <.eb>:
    266a:	cb e2 a9    	bclr.b    0x2cb, #0x7
    266c:	80 0c 20    	mov.w     #0xc8, w0
    266e:	01 00 20    	mov.w     #0x0, w1
    2670:	11 05 07    	rcall     0x3094 <_EE_delay_us>

00002672 <.bb>:
    2672:	d6 a2 a9    	bclr.b    0x2d6, #0x5
    2674:	cb e2 a8    	bset.b    0x2cb, #0x7
    2676:	00 04 fd    	exch      w0, w8
    2678:	dc 22 b6    	and.w     0x2dc
    267a:	00 04 fd    	exch      w0, w8
    267c:	0d 00 fb    	se        w13, w0
    267e:	11 00 09    	repeat    #0x11
    2680:	09 00 d8    	div.sw    w0, w9
    2682:	81 04 78    	mov.w     w1, w9
    2684:	00 43 b0    	add.b     #0x30, w0
    2686:	00 00 fb    	se        w0, w0
    2688:	dc 22 b7    	ior.w     0x2dc

0000268a <.bb>:
    268a:	d6 82 a8    	bset.b    0x2d6, #0x4
	...
    2692:	d6 82 a9    	bclr.b    0x2d6, #0x4

00002694 <.eb>:
    2694:	cb e2 a9    	bclr.b    0x2cb, #0x7
    2696:	80 0c 20    	mov.w     #0xc8, w0
    2698:	01 00 20    	mov.w     #0x0, w1
    269a:	fc 04 07    	rcall     0x3094 <_EE_delay_us>

0000269c <.bb>:
    269c:	d6 a2 a9    	bclr.b    0x2d6, #0x5
    269e:	cb e2 a8    	bset.b    0x2cb, #0x7
    26a0:	00 04 fd    	exch      w0, w8
    26a2:	dc 22 b6    	and.w     0x2dc
    26a4:	00 04 fd    	exch      w0, w8
    26a6:	01 c3 b3    	mov.b     #0x30, w1
    26a8:	01 c0 44    	add.b     w9, w1, w0
    26aa:	00 00 fb    	se        w0, w0
    26ac:	dc 22 b7    	ior.w     0x2dc

000026ae <.bb>:
    26ae:	d6 82 a8    	bset.b    0x2d6, #0x4
	...
    26b6:	d6 82 a9    	bclr.b    0x2d6, #0x4

000026b8 <.eb>:
    26b8:	cb e2 a9    	bclr.b    0x2cb, #0x7
    26ba:	80 0c 20    	mov.w     #0xc8, w0
    26bc:	01 00 20    	mov.w     #0x0, w1
    26be:	ea 04 07    	rcall     0x3094 <_EE_delay_us>

000026c0 <.bb>:
    26c0:	d6 a2 a9    	bclr.b    0x2d6, #0x5
    26c2:	cb e2 a8    	bset.b    0x2cb, #0x7
    26c4:	00 04 fd    	exch      w0, w8
    26c6:	dc 22 b6    	and.w     0x2dc
    26c8:	00 04 fd    	exch      w0, w8
    26ca:	0a 00 fd    	exch      w10, w0
    26cc:	dc 22 b7    	ior.w     0x2dc
    26ce:	0a 00 fd    	exch      w10, w0

000026d0 <.bb>:
    26d0:	d6 82 a8    	bset.b    0x2d6, #0x4
	...
    26d8:	d6 82 a9    	bclr.b    0x2d6, #0x4

000026da <.eb>:
    26da:	cb e2 a9    	bclr.b    0x2cb, #0x7
    26dc:	80 0c 20    	mov.w     #0xc8, w0
    26de:	01 00 20    	mov.w     #0x0, w1
    26e0:	d9 04 07    	rcall     0x3094 <_EE_delay_us>

000026e2 <.bb>:
    26e2:	d6 a2 a9    	bclr.b    0x2d6, #0x5
    26e4:	cb e2 a8    	bset.b    0x2cb, #0x7
    26e6:	00 04 fd    	exch      w0, w8
    26e8:	dc 22 b6    	and.w     0x2dc
    26ea:	00 04 fd    	exch      w0, w8
    26ec:	0a 00 fd    	exch      w10, w0
    26ee:	dc 22 b7    	ior.w     0x2dc
    26f0:	0a 00 fd    	exch      w10, w0

000026f2 <.bb>:
    26f2:	d6 82 a8    	bset.b    0x2d6, #0x4
	...
    26fa:	d6 82 a9    	bclr.b    0x2d6, #0x4

000026fc <.eb>:
    26fc:	cb e2 a9    	bclr.b    0x2cb, #0x7
    26fe:	80 0c 20    	mov.w     #0xc8, w0
    2700:	01 00 20    	mov.w     #0x0, w1
    2702:	c8 04 07    	rcall     0x3094 <_EE_delay_us>

00002704 <.eb>:
    2704:	b0 52 80    	mov.w     0xa56, w0

00002706 <.bb>:
    2706:	d6 a2 a9    	bclr.b    0x2d6, #0x5
    2708:	cb e2 a8    	bset.b    0x2cb, #0x7
    270a:	00 04 fd    	exch      w0, w8
    270c:	dc 22 b6    	and.w     0x2dc
    270e:	00 04 fd    	exch      w0, w8
    2710:	00 43 b0    	add.b     #0x30, w0
    2712:	00 00 fb    	se        w0, w0
    2714:	dc 22 b7    	ior.w     0x2dc

00002716 <.bb>:
    2716:	d6 82 a8    	bset.b    0x2d6, #0x4
	...
    271e:	d6 82 a9    	bclr.b    0x2d6, #0x4

00002720 <.eb>:
    2720:	cb e2 a9    	bclr.b    0x2cb, #0x7
    2722:	80 0c 20    	mov.w     #0xc8, w0
    2724:	01 00 20    	mov.w     #0x0, w1
    2726:	b6 04 07    	rcall     0x3094 <_EE_delay_us>

00002728 <.eb>:
    2728:	a0 52 80    	mov.w     0xa54, w0

0000272a <.bb>:
    272a:	d6 a2 a9    	bclr.b    0x2d6, #0x5
    272c:	cb e2 a8    	bset.b    0x2cb, #0x7
    272e:	00 04 fd    	exch      w0, w8
    2730:	dc 22 b6    	and.w     0x2dc
    2732:	00 04 fd    	exch      w0, w8
    2734:	00 43 b0    	add.b     #0x30, w0
    2736:	00 00 fb    	se        w0, w0
    2738:	dc 22 b7    	ior.w     0x2dc

0000273a <.bb>:
    273a:	d6 82 a8    	bset.b    0x2d6, #0x4
	...
    2742:	d6 82 a9    	bclr.b    0x2d6, #0x4

00002744 <.eb>:
    2744:	cb e2 a9    	bclr.b    0x2cb, #0x7
    2746:	80 0c 20    	mov.w     #0xc8, w0
    2748:	01 00 20    	mov.w     #0x0, w1
    274a:	a4 04 07    	rcall     0x3094 <_EE_delay_us>

0000274c <.eb>:
    274c:	90 52 80    	mov.w     0xa52, w0

0000274e <.bb>:
    274e:	d6 a2 a9    	bclr.b    0x2d6, #0x5
    2750:	cb e2 a8    	bset.b    0x2cb, #0x7
    2752:	00 04 fd    	exch      w0, w8
    2754:	dc 22 b6    	and.w     0x2dc
    2756:	00 04 fd    	exch      w0, w8
    2758:	00 43 b0    	add.b     #0x30, w0
    275a:	00 00 fb    	se        w0, w0
    275c:	dc 22 b7    	ior.w     0x2dc

0000275e <.bb>:
    275e:	d6 82 a8    	bset.b    0x2d6, #0x4
	...
    2766:	d6 82 a9    	bclr.b    0x2d6, #0x4

00002768 <.eb>:
    2768:	cb e2 a9    	bclr.b    0x2cb, #0x7
    276a:	80 0c 20    	mov.w     #0xc8, w0
    276c:	01 00 20    	mov.w     #0x0, w1
    276e:	92 04 07    	rcall     0x3094 <_EE_delay_us>

00002770 <.eb>:
    2770:	80 52 80    	mov.w     0xa50, w0

00002772 <.bb>:
    2772:	d6 a2 a9    	bclr.b    0x2d6, #0x5
    2774:	cb e2 a8    	bset.b    0x2cb, #0x7
    2776:	00 04 fd    	exch      w0, w8
    2778:	dc 22 b6    	and.w     0x2dc
    277a:	00 04 fd    	exch      w0, w8
    277c:	00 43 b0    	add.b     #0x30, w0
    277e:	00 00 fb    	se        w0, w0
    2780:	dc 22 b7    	ior.w     0x2dc

00002782 <.bb>:
    2782:	d6 82 a8    	bset.b    0x2d6, #0x4
	...
    278a:	d6 82 a9    	bclr.b    0x2d6, #0x4

0000278c <.eb>:
    278c:	cb e2 a9    	bclr.b    0x2cb, #0x7
    278e:	80 0c 20    	mov.w     #0xc8, w0
    2790:	01 00 20    	mov.w     #0x0, w1
    2792:	80 04 07    	rcall     0x3094 <_EE_delay_us>

00002794 <.eb>:
    2794:	70 52 80    	mov.w     0xa4e, w0

00002796 <.bb>:
    2796:	d6 a2 a9    	bclr.b    0x2d6, #0x5
    2798:	cb e2 a8    	bset.b    0x2cb, #0x7
    279a:	00 04 fd    	exch      w0, w8
    279c:	dc 22 b6    	and.w     0x2dc
    279e:	00 04 fd    	exch      w0, w8
    27a0:	00 43 b0    	add.b     #0x30, w0
    27a2:	00 00 fb    	se        w0, w0
    27a4:	dc 22 b7    	ior.w     0x2dc

000027a6 <.bb>:
    27a6:	d6 82 a8    	bset.b    0x2d6, #0x4
	...
    27ae:	d6 82 a9    	bclr.b    0x2d6, #0x4

000027b0 <.eb>:
    27b0:	cb e2 a9    	bclr.b    0x2cb, #0x7
    27b2:	80 0c 20    	mov.w     #0xc8, w0
    27b4:	01 00 20    	mov.w     #0x0, w1
    27b6:	6e 04 07    	rcall     0x3094 <_EE_delay_us>

000027b8 <.eb>:
    27b8:	4f 06 be    	mov.d     [--w15], w12
    27ba:	4f 05 be    	mov.d     [--w15], w10
    27bc:	4f 04 be    	mov.d     [--w15], w8
    27be:	00 00 06    	return    

000027c0 <_my_button>:
    27c0:	d4 c2 bf    	mov.b     0x2d4, WREG

000027c2 <.eb>:
    27c2:	00 68 a3    	btst.z    w0, #0x6
    27c4:	2b 00 32    	bra       Z, 0x281c <.L381>

000027c6 <.bb>:
    27c6:	d4 c2 bf    	mov.b     0x2d4, WREG

000027c8 <.eb>:
    27c8:	00 80 fb    	ze        w0, w0
    27ca:	00 70 a2    	btg.w     w0, #0x7
    27cc:	47 00 de    	lsr.w     w0, #0x7, w0
    27ce:	e1 4f 50    	sub.b     w0, #0x1, [w15]
    27d0:	34 00 32    	bra       Z, 0x283a <.L382>

000027d2 <.L379>:
    27d2:	c1 52 80    	mov.w     0xa58, w1

000027d4 <.L365>:
    27d4:	c2 c2 bf    	mov.b     0x2c2, WREG

000027d6 <.eb>:
    27d6:	00 80 fb    	ze        w0, w0
    27d8:	00 70 a2    	btg.w     w0, #0x7
    27da:	47 00 de    	lsr.w     w0, #0x7, w0
    27dc:	e1 4f 50    	sub.b     w0, #0x1, [w15]
    27de:	15 00 32    	bra       Z, 0x280a <.L383>

000027e0 <.L369>:
    27e0:	d5 c2 bf    	mov.b     0x2d5, WREG

000027e2 <.eb>:
    27e2:	00 58 a3    	btst.z    w0, #0x5
    27e4:	08 00 32    	bra       Z, 0x27f6 <.L384>

000027e6 <.L372>:
    27e6:	e2 8f 50    	sub.w     w1, #0x2, [w15]
    27e8:	0c 00 32    	bra       Z, 0x2802 <.L376>

000027ea <.L386>:
    27ea:	e3 8f 50    	sub.w     w1, #0x3, [w15]
    27ec:	36 00 32    	bra       Z, 0x285a <.L377>
    27ee:	e1 8f 50    	sub.w     w1, #0x1, [w15]
    27f0:	38 00 32    	bra       Z, 0x2862 <.L385>
    27f2:	70 08 20    	mov.w     #0x87, w0
    27f4:	9b f4 37    	bra       0x112c <_Delay>

000027f6 <.L384>:
    27f6:	00 f0 2f    	mov.w     #0xff00, w0
    27f8:	c4 22 b6    	and.w     0x2c4
    27fa:	50 05 20    	mov.w     #0x55, w0
    27fc:	c4 22 b7    	ior.w     0x2c4

000027fe <.eb>:
    27fe:	e2 8f 50    	sub.w     w1, #0x2, [w15]
    2800:	f4 ff 3a    	bra       NZ, 0x27ea <.L386>

00002802 <.L376>:
    2802:	a3 fd 07    	rcall     0x234a <_LCD_intelligent>
    2804:	70 08 20    	mov.w     #0x87, w0
    2806:	92 f4 37    	bra       0x112c <_Delay>
    2808:	f6 ff 37    	bra       0x27f6 <.L384>

0000280a <.L383>:
    280a:	64 6a ef    	clr.b     0xa64

0000280c <.bb>:
    280c:	00 f0 2f    	mov.w     #0xff00, w0
    280e:	c4 22 b6    	and.w     0x2c4
    2810:	a0 0a 20    	mov.w     #0xaa, w0
    2812:	c4 22 b7    	ior.w     0x2c4

00002814 <.bb>:
    2814:	d5 c2 bf    	mov.b     0x2d5, WREG

00002816 <.eb>:
    2816:	00 58 a3    	btst.z    w0, #0x5
    2818:	e6 ff 3a    	bra       NZ, 0x27e6 <.L372>
    281a:	ed ff 37    	bra       0x27f6 <.L384>

0000281c <.L381>:
    281c:	c0 52 80    	mov.w     0xa58, w0
    281e:	e2 0f 50    	sub.w     w0, #0x2, [w15]
    2820:	24 00 36    	bra       LEU, 0x286a <.L387>
    2822:	11 00 20    	mov.w     #0x1, w1
    2824:	c1 52 88    	mov.w     w1, 0xa58

00002826 <.bb>:
    2826:	00 f0 2f    	mov.w     #0xff00, w0
    2828:	c4 22 b6    	and.w     0x2c4
    282a:	f0 00 20    	mov.w     #0xf, w0
    282c:	c4 22 b7    	ior.w     0x2c4

0000282e <.L388>:
    282e:	d4 c2 bf    	mov.b     0x2d4, WREG

00002830 <.eb>:
    2830:	00 80 fb    	ze        w0, w0
    2832:	00 70 a2    	btg.w     w0, #0x7
    2834:	47 00 de    	lsr.w     w0, #0x7, w0
    2836:	e1 4f 50    	sub.b     w0, #0x1, [w15]
    2838:	cc ff 3a    	bra       NZ, 0x27d2 <.L379>

0000283a <.L382>:
    283a:	c1 52 80    	mov.w     0xa58, w1
    283c:	e1 8f 50    	sub.w     w1, #0x1, [w15]
    283e:	ca ff 3a    	bra       NZ, 0x27d4 <.L365>
    2840:	01 00 78    	mov.w     w1, w0
    2842:	64 ea b7    	mov.b     WREG, 0xa64

00002844 <.bb>:
    2844:	00 f0 2f    	mov.w     #0xff00, w0
    2846:	c4 22 b6    	and.w     0x2c4
    2848:	00 0f 20    	mov.w     #0xf0, w0
    284a:	c4 22 b7    	ior.w     0x2c4

0000284c <.bb>:
    284c:	c2 c2 bf    	mov.b     0x2c2, WREG

0000284e <.eb>:
    284e:	00 80 fb    	ze        w0, w0
    2850:	00 70 a2    	btg.w     w0, #0x7
    2852:	47 00 de    	lsr.w     w0, #0x7, w0
    2854:	e1 4f 50    	sub.b     w0, #0x1, [w15]
    2856:	c4 ff 3a    	bra       NZ, 0x27e0 <.L369>
    2858:	d8 ff 37    	bra       0x280a <.L383>

0000285a <.L377>:
    285a:	aa fb 07    	rcall     0x1fb0 <_LCD_timer>
    285c:	70 08 20    	mov.w     #0x87, w0
    285e:	66 f4 37    	bra       0x112c <_Delay>
    2860:	ca ff 37    	bra       0x27f6 <.L384>

00002862 <.L385>:
    2862:	6f f8 07    	rcall     0x1942 <_LCD_manual>
    2864:	70 08 20    	mov.w     #0x87, w0
    2866:	62 f4 37    	bra       0x112c <_Delay>
    2868:	c6 ff 37    	bra       0x27f6 <.L384>

0000286a <.L387>:
    286a:	80 00 e8    	inc.w     w0, w1
    286c:	c1 52 88    	mov.w     w1, 0xa58

0000286e <.bb>:
    286e:	00 f0 2f    	mov.w     #0xff00, w0
    2870:	c4 22 b6    	and.w     0x2c4
    2872:	f0 00 20    	mov.w     #0xf, w0
    2874:	c4 22 b7    	ior.w     0x2c4
    2876:	db ff 37    	bra       0x282e <.L388>

00002878 <_FuncTaskLCD>:
    2878:	c0 52 80    	mov.w     0xa58, w0
    287a:	e2 0f 50    	sub.w     w0, #0x2, [w15]
    287c:	05 00 32    	bra       Z, 0x2888 <.L394>
    287e:	e3 0f 50    	sub.w     w0, #0x3, [w15]
    2880:	04 00 32    	bra       Z, 0x288a <.L395>
    2882:	e1 0f 50    	sub.w     w0, #0x1, [w15]
    2884:	03 00 32    	bra       Z, 0x288c <.L398>
    2886:	00 00 06    	return    

00002888 <.L394>:
    2888:	60 fd 37    	bra       0x234a <_LCD_intelligent>

0000288a <.L395>:
    288a:	92 fb 37    	bra       0x1fb0 <_LCD_timer>

0000288c <.L398>:
    288c:	5a f8 37    	bra       0x1942 <_LCD_manual>

0000288e <_I2C_Init>:
    288e:	07 e2 a9    	bclr.b    0x207, #0x7
    2890:	96 00 a9    	bclr.b    0x96, #0x0
    2892:	96 20 a9    	bclr.b    0x96, #0x1
    2894:	86 00 a9    	bclr.b    0x86, #0x0
    2896:	86 20 a9    	bclr.b    0x86, #0x1
    2898:	e4 46 a8    	bset.b    0x6e4, #0x2
    289a:	e4 66 a8    	bset.b    0x6e4, #0x3
    289c:	80 00 eb    	clr.w     w1
    289e:	51 10 88    	mov.w     w1, 0x20a
    28a0:	61 10 88    	mov.w     w1, 0x20c
    28a2:	30 55 20    	mov.w     #0x553, w0
    28a4:	20 10 88    	mov.w     w0, 0x204
    28a6:	31 10 88    	mov.w     w1, 0x206
    28a8:	06 a2 a8    	bset.b    0x206, #0x5
    28aa:	07 22 a8    	bset.b    0x207, #0x1
    28ac:	07 e2 a8    	bset.b    0x207, #0x7
    28ae:	00 00 06    	return    

000028b0 <_I2C_ReadByte>:
    28b0:	00 41 78    	mov.b     w0, w2

000028b2 <.L125>:
    28b2:	06 c2 bf    	mov.b     0x206, WREG
    28b4:	00 08 a3    	btst.z    w0, #0x0
    28b6:	fd ff 3a    	bra       NZ, 0x28b2 <.L125>
    28b8:	06 c2 bf    	mov.b     0x206, WREG
    28ba:	00 28 a3    	btst.z    w0, #0x2
    28bc:	fa ff 3a    	bra       NZ, 0x28b2 <.L125>
    28be:	06 c2 bf    	mov.b     0x206, WREG
    28c0:	00 38 a3    	btst.z    w0, #0x3
    28c2:	f7 ff 3a    	bra       NZ, 0x28b2 <.L125>
    28c4:	06 c2 bf    	mov.b     0x206, WREG
    28c6:	00 48 a3    	btst.z    w0, #0x4
    28c8:	f4 ff 3a    	bra       NZ, 0x28b2 <.L125>
    28ca:	09 c2 bf    	mov.b     0x209, WREG
    28cc:	00 68 a3    	btst.z    w0, #0x6
    28ce:	f1 ff 3a    	bra       NZ, 0x28b2 <.L125>
    28d0:	06 02 a8    	bset.b    0x206, #0x0

000028d2 <.L12>:
    28d2:	06 c2 bf    	mov.b     0x206, WREG
    28d4:	00 08 a3    	btst.z    w0, #0x0
    28d6:	fd ff 3a    	bra       NZ, 0x28d2 <.L12>
    28d8:	02 81 fb    	ze        w2, w2
    28da:	12 10 88    	mov.w     w2, 0x202
    28dc:	08 42 e2    	cp0.b     0x208
    28de:	87 00 35    	bra       LT, 0x29ee <.L14>

000028e0 <.L86>:
    28e0:	08 c2 bf    	mov.b     0x208, WREG
    28e2:	00 08 a3    	btst.z    w0, #0x0
    28e4:	fd ff 3a    	bra       NZ, 0x28e0 <.L86>

000028e6 <.L16>:
    28e6:	09 42 e2    	cp0.b     0x209
    28e8:	fe ff 35    	bra       LT, 0x28e6 <.L16>

000028ea <.L126>:
    28ea:	06 c2 bf    	mov.b     0x206, WREG
    28ec:	00 08 a3    	btst.z    w0, #0x0
    28ee:	fd ff 3a    	bra       NZ, 0x28ea <.L126>
    28f0:	06 c2 bf    	mov.b     0x206, WREG
    28f2:	00 28 a3    	btst.z    w0, #0x2
    28f4:	fa ff 3a    	bra       NZ, 0x28ea <.L126>
    28f6:	06 c2 bf    	mov.b     0x206, WREG
    28f8:	00 38 a3    	btst.z    w0, #0x3
    28fa:	f7 ff 3a    	bra       NZ, 0x28ea <.L126>
    28fc:	06 c2 bf    	mov.b     0x206, WREG
    28fe:	00 48 a3    	btst.z    w0, #0x4
    2900:	f4 ff 3a    	bra       NZ, 0x28ea <.L126>
    2902:	09 c2 bf    	mov.b     0x209, WREG
    2904:	00 68 a3    	btst.z    w0, #0x6
    2906:	f1 ff 3a    	bra       NZ, 0x28ea <.L126>
    2908:	01 80 fb    	ze        w1, w0
    290a:	10 10 88    	mov.w     w0, 0x202
    290c:	08 42 e2    	cp0.b     0x208
    290e:	6f 00 35    	bra       LT, 0x29ee <.L14>

00002910 <.L87>:
    2910:	08 c2 bf    	mov.b     0x208, WREG
    2912:	00 08 a3    	btst.z    w0, #0x0
    2914:	fd ff 3a    	bra       NZ, 0x2910 <.L87>

00002916 <.L24>:
    2916:	09 42 e2    	cp0.b     0x209
    2918:	fe ff 35    	bra       LT, 0x2916 <.L24>

0000291a <.L127>:
    291a:	06 c2 bf    	mov.b     0x206, WREG
    291c:	00 08 a3    	btst.z    w0, #0x0
    291e:	fd ff 3a    	bra       NZ, 0x291a <.L127>
    2920:	06 c2 bf    	mov.b     0x206, WREG
    2922:	00 28 a3    	btst.z    w0, #0x2
    2924:	fa ff 3a    	bra       NZ, 0x291a <.L127>
    2926:	06 c2 bf    	mov.b     0x206, WREG
    2928:	00 38 a3    	btst.z    w0, #0x3
    292a:	f7 ff 3a    	bra       NZ, 0x291a <.L127>
    292c:	06 c2 bf    	mov.b     0x206, WREG
    292e:	00 48 a3    	btst.z    w0, #0x4
    2930:	f4 ff 3a    	bra       NZ, 0x291a <.L127>
    2932:	09 c2 bf    	mov.b     0x209, WREG
    2934:	00 68 a3    	btst.z    w0, #0x6
    2936:	f1 ff 3a    	bra       NZ, 0x291a <.L127>
    2938:	06 22 a8    	bset.b    0x206, #0x1

0000293a <.L31>:
    293a:	06 c2 bf    	mov.b     0x206, WREG
    293c:	00 18 a3    	btst.z    w0, #0x1
    293e:	fd ff 3a    	bra       NZ, 0x293a <.L31>
    2940:	02 00 e8    	inc.w     w2, w0
    2942:	10 10 88    	mov.w     w0, 0x202
    2944:	08 42 e2    	cp0.b     0x208
    2946:	53 00 35    	bra       LT, 0x29ee <.L14>

00002948 <.L88>:
    2948:	08 c2 bf    	mov.b     0x208, WREG
    294a:	00 08 a3    	btst.z    w0, #0x0
    294c:	fd ff 3a    	bra       NZ, 0x2948 <.L88>

0000294e <.L34>:
    294e:	09 42 e2    	cp0.b     0x209
    2950:	fe ff 35    	bra       LT, 0x294e <.L34>

00002952 <.L128>:
    2952:	06 c2 bf    	mov.b     0x206, WREG
    2954:	00 08 a3    	btst.z    w0, #0x0
    2956:	fd ff 3a    	bra       NZ, 0x2952 <.L128>
    2958:	06 c2 bf    	mov.b     0x206, WREG
    295a:	00 28 a3    	btst.z    w0, #0x2
    295c:	fa ff 3a    	bra       NZ, 0x2952 <.L128>
    295e:	06 c2 bf    	mov.b     0x206, WREG
    2960:	00 38 a3    	btst.z    w0, #0x3
    2962:	f7 ff 3a    	bra       NZ, 0x2952 <.L128>
    2964:	06 c2 bf    	mov.b     0x206, WREG
    2966:	00 48 a3    	btst.z    w0, #0x4
    2968:	f4 ff 3a    	bra       NZ, 0x2952 <.L128>
    296a:	09 c2 bf    	mov.b     0x209, WREG
    296c:	00 68 a3    	btst.z    w0, #0x6
    296e:	f1 ff 3a    	bra       NZ, 0x2952 <.L128>
    2970:	06 62 a8    	bset.b    0x206, #0x3

00002972 <.L41>:
    2972:	06 c2 bf    	mov.b     0x206, WREG
    2974:	00 38 a3    	btst.z    w0, #0x3
    2976:	fd ff 3a    	bra       NZ, 0x2972 <.L41>
    2978:	08 c2 a9    	bclr.b    0x208, #0x6
    297a:	00 10 80    	mov.w     0x200, w0
    297c:	80 40 78    	mov.b     w0, w1

0000297e <.L129>:
    297e:	06 c2 bf    	mov.b     0x206, WREG
    2980:	00 08 a3    	btst.z    w0, #0x0
    2982:	fd ff 3a    	bra       NZ, 0x297e <.L129>
    2984:	06 c2 bf    	mov.b     0x206, WREG
    2986:	00 28 a3    	btst.z    w0, #0x2
    2988:	fa ff 3a    	bra       NZ, 0x297e <.L129>
    298a:	06 c2 bf    	mov.b     0x206, WREG
    298c:	00 38 a3    	btst.z    w0, #0x3
    298e:	f7 ff 3a    	bra       NZ, 0x297e <.L129>
    2990:	06 c2 bf    	mov.b     0x206, WREG
    2992:	00 48 a3    	btst.z    w0, #0x4
    2994:	f4 ff 3a    	bra       NZ, 0x297e <.L129>
    2996:	09 c2 bf    	mov.b     0x209, WREG
    2998:	00 68 a3    	btst.z    w0, #0x6
    299a:	f1 ff 3a    	bra       NZ, 0x297e <.L129>
    299c:	06 a2 a8    	bset.b    0x206, #0x5
    299e:	06 82 a8    	bset.b    0x206, #0x4

000029a0 <.L49>:
    29a0:	06 c2 bf    	mov.b     0x206, WREG
    29a2:	00 48 a3    	btst.z    w0, #0x4
    29a4:	fd ff 3a    	bra       NZ, 0x29a0 <.L49>

000029a6 <.L130>:
    29a6:	06 c2 bf    	mov.b     0x206, WREG
    29a8:	00 08 a3    	btst.z    w0, #0x0
    29aa:	fd ff 3a    	bra       NZ, 0x29a6 <.L130>
    29ac:	06 c2 bf    	mov.b     0x206, WREG
    29ae:	00 28 a3    	btst.z    w0, #0x2
    29b0:	fa ff 3a    	bra       NZ, 0x29a6 <.L130>
    29b2:	06 c2 bf    	mov.b     0x206, WREG
    29b4:	00 38 a3    	btst.z    w0, #0x3
    29b6:	f7 ff 3a    	bra       NZ, 0x29a6 <.L130>
    29b8:	06 c2 bf    	mov.b     0x206, WREG
    29ba:	00 48 a3    	btst.z    w0, #0x4
    29bc:	f4 ff 3a    	bra       NZ, 0x29a6 <.L130>
    29be:	09 c2 bf    	mov.b     0x209, WREG
    29c0:	00 68 a3    	btst.z    w0, #0x6
    29c2:	f1 ff 3a    	bra       NZ, 0x29a6 <.L130>
    29c4:	06 42 a8    	bset.b    0x206, #0x2

000029c6 <.L56>:
    29c6:	06 c2 bf    	mov.b     0x206, WREG
    29c8:	00 28 a3    	btst.z    w0, #0x2
    29ca:	fd ff 3a    	bra       NZ, 0x29c6 <.L56>

000029cc <.L131>:
    29cc:	06 c2 bf    	mov.b     0x206, WREG
    29ce:	00 08 a3    	btst.z    w0, #0x0
    29d0:	fd ff 3a    	bra       NZ, 0x29cc <.L131>
    29d2:	06 c2 bf    	mov.b     0x206, WREG
    29d4:	00 28 a3    	btst.z    w0, #0x2
    29d6:	fa ff 3a    	bra       NZ, 0x29cc <.L131>
    29d8:	06 c2 bf    	mov.b     0x206, WREG
    29da:	00 38 a3    	btst.z    w0, #0x3
    29dc:	f7 ff 3a    	bra       NZ, 0x29cc <.L131>
    29de:	06 c2 bf    	mov.b     0x206, WREG
    29e0:	00 48 a3    	btst.z    w0, #0x4
    29e2:	f4 ff 3a    	bra       NZ, 0x29cc <.L131>
    29e4:	09 c2 bf    	mov.b     0x209, WREG
    29e6:	00 68 a3    	btst.z    w0, #0x6
    29e8:	f1 ff 3a    	bra       NZ, 0x29cc <.L131>
    29ea:	01 80 fb    	ze        w1, w0
    29ec:	00 00 06    	return    

000029ee <.L14>:
    29ee:	f0 0f 05    	retlw.w   #0xff, w0

000029f0 <_I2C_WriteByte>:
    29f0:	80 41 78    	mov.b     w0, w3

000029f2 <.L222>:
    29f2:	06 c2 bf    	mov.b     0x206, WREG
    29f4:	00 08 a3    	btst.z    w0, #0x0
    29f6:	fd ff 3a    	bra       NZ, 0x29f2 <.L222>
    29f8:	06 c2 bf    	mov.b     0x206, WREG
    29fa:	00 28 a3    	btst.z    w0, #0x2
    29fc:	fa ff 3a    	bra       NZ, 0x29f2 <.L222>
    29fe:	06 c2 bf    	mov.b     0x206, WREG
    2a00:	00 38 a3    	btst.z    w0, #0x3
    2a02:	f7 ff 3a    	bra       NZ, 0x29f2 <.L222>
    2a04:	06 c2 bf    	mov.b     0x206, WREG
    2a06:	00 48 a3    	btst.z    w0, #0x4
    2a08:	f4 ff 3a    	bra       NZ, 0x29f2 <.L222>
    2a0a:	09 c2 bf    	mov.b     0x209, WREG
    2a0c:	00 68 a3    	btst.z    w0, #0x6
    2a0e:	f1 ff 3a    	bra       NZ, 0x29f2 <.L222>
    2a10:	06 02 a8    	bset.b    0x206, #0x0

00002a12 <.L142>:
    2a12:	06 c2 bf    	mov.b     0x206, WREG
    2a14:	00 08 a3    	btst.z    w0, #0x0
    2a16:	fd ff 3a    	bra       NZ, 0x2a12 <.L142>
    2a18:	03 80 fb    	ze        w3, w0
    2a1a:	10 10 88    	mov.w     w0, 0x202
    2a1c:	08 42 e2    	cp0.b     0x208
    2a1e:	02 00 3d    	bra       GE, 0x2a24 <.L193>

00002a20 <.L144>:
    2a20:	00 80 eb    	setm.w    w0
    2a22:	00 00 06    	return    

00002a24 <.L193>:
    2a24:	08 c2 bf    	mov.b     0x208, WREG
    2a26:	00 08 a3    	btst.z    w0, #0x0
    2a28:	fd ff 3a    	bra       NZ, 0x2a24 <.L193>

00002a2a <.L146>:
    2a2a:	09 42 e2    	cp0.b     0x209
    2a2c:	fe ff 35    	bra       LT, 0x2a2a <.L146>

00002a2e <.L223>:
    2a2e:	06 c2 bf    	mov.b     0x206, WREG
    2a30:	00 08 a3    	btst.z    w0, #0x0
    2a32:	fd ff 3a    	bra       NZ, 0x2a2e <.L223>
    2a34:	06 c2 bf    	mov.b     0x206, WREG
    2a36:	00 28 a3    	btst.z    w0, #0x2
    2a38:	fa ff 3a    	bra       NZ, 0x2a2e <.L223>
    2a3a:	06 c2 bf    	mov.b     0x206, WREG
    2a3c:	00 38 a3    	btst.z    w0, #0x3
    2a3e:	f7 ff 3a    	bra       NZ, 0x2a2e <.L223>
    2a40:	06 c2 bf    	mov.b     0x206, WREG
    2a42:	00 48 a3    	btst.z    w0, #0x4
    2a44:	f4 ff 3a    	bra       NZ, 0x2a2e <.L223>
    2a46:	09 c2 bf    	mov.b     0x209, WREG
    2a48:	00 68 a3    	btst.z    w0, #0x6
    2a4a:	f1 ff 3a    	bra       NZ, 0x2a2e <.L223>
    2a4c:	01 80 fb    	ze        w1, w0
    2a4e:	10 10 88    	mov.w     w0, 0x202
    2a50:	08 42 e2    	cp0.b     0x208
    2a52:	e6 ff 35    	bra       LT, 0x2a20 <.L144>

00002a54 <.L194>:
    2a54:	08 c2 bf    	mov.b     0x208, WREG
    2a56:	00 08 a3    	btst.z    w0, #0x0
    2a58:	fd ff 3a    	bra       NZ, 0x2a54 <.L194>

00002a5a <.L154>:
    2a5a:	09 42 e2    	cp0.b     0x209
    2a5c:	fe ff 35    	bra       LT, 0x2a5a <.L154>

00002a5e <.L224>:
    2a5e:	06 c2 bf    	mov.b     0x206, WREG
    2a60:	00 08 a3    	btst.z    w0, #0x0
    2a62:	fd ff 3a    	bra       NZ, 0x2a5e <.L224>
    2a64:	06 c2 bf    	mov.b     0x206, WREG
    2a66:	00 28 a3    	btst.z    w0, #0x2
    2a68:	fa ff 3a    	bra       NZ, 0x2a5e <.L224>
    2a6a:	06 c2 bf    	mov.b     0x206, WREG
    2a6c:	00 38 a3    	btst.z    w0, #0x3
    2a6e:	f7 ff 3a    	bra       NZ, 0x2a5e <.L224>
    2a70:	06 c2 bf    	mov.b     0x206, WREG
    2a72:	00 48 a3    	btst.z    w0, #0x4
    2a74:	f4 ff 3a    	bra       NZ, 0x2a5e <.L224>
    2a76:	09 c2 bf    	mov.b     0x209, WREG
    2a78:	00 68 a3    	btst.z    w0, #0x6
    2a7a:	f1 ff 3a    	bra       NZ, 0x2a5e <.L224>
    2a7c:	02 80 fb    	ze        w2, w0
    2a7e:	10 10 88    	mov.w     w0, 0x202
    2a80:	08 42 e2    	cp0.b     0x208
    2a82:	ce ff 35    	bra       LT, 0x2a20 <.L144>

00002a84 <.L195>:
    2a84:	08 c2 bf    	mov.b     0x208, WREG
    2a86:	00 08 a3    	btst.z    w0, #0x0
    2a88:	fd ff 3a    	bra       NZ, 0x2a84 <.L195>

00002a8a <.L162>:
    2a8a:	09 42 e2    	cp0.b     0x209
    2a8c:	fe ff 35    	bra       LT, 0x2a8a <.L162>

00002a8e <.L225>:
    2a8e:	06 c2 bf    	mov.b     0x206, WREG
    2a90:	00 08 a3    	btst.z    w0, #0x0
    2a92:	fd ff 3a    	bra       NZ, 0x2a8e <.L225>
    2a94:	06 c2 bf    	mov.b     0x206, WREG
    2a96:	00 28 a3    	btst.z    w0, #0x2
    2a98:	fa ff 3a    	bra       NZ, 0x2a8e <.L225>
    2a9a:	06 c2 bf    	mov.b     0x206, WREG
    2a9c:	00 38 a3    	btst.z    w0, #0x3
    2a9e:	f7 ff 3a    	bra       NZ, 0x2a8e <.L225>
    2aa0:	06 c2 bf    	mov.b     0x206, WREG
    2aa2:	00 48 a3    	btst.z    w0, #0x4
    2aa4:	f4 ff 3a    	bra       NZ, 0x2a8e <.L225>
    2aa6:	09 c2 bf    	mov.b     0x209, WREG
    2aa8:	00 68 a3    	btst.z    w0, #0x6
    2aaa:	f1 ff 3a    	bra       NZ, 0x2a8e <.L225>
    2aac:	06 42 a8    	bset.b    0x206, #0x2

00002aae <.L169>:
    2aae:	06 c2 bf    	mov.b     0x206, WREG
    2ab0:	00 28 a3    	btst.z    w0, #0x2
    2ab2:	fd ff 3a    	bra       NZ, 0x2aae <.L169>

00002ab4 <.L226>:
    2ab4:	06 c2 bf    	mov.b     0x206, WREG
    2ab6:	00 08 a3    	btst.z    w0, #0x0
    2ab8:	fd ff 3a    	bra       NZ, 0x2ab4 <.L226>
    2aba:	06 c2 bf    	mov.b     0x206, WREG
    2abc:	00 28 a3    	btst.z    w0, #0x2
    2abe:	fa ff 3a    	bra       NZ, 0x2ab4 <.L226>
    2ac0:	06 c2 bf    	mov.b     0x206, WREG
    2ac2:	00 38 a3    	btst.z    w0, #0x3
    2ac4:	f7 ff 3a    	bra       NZ, 0x2ab4 <.L226>
    2ac6:	06 c2 bf    	mov.b     0x206, WREG
    2ac8:	00 48 a3    	btst.z    w0, #0x4
    2aca:	f4 ff 3a    	bra       NZ, 0x2ab4 <.L226>
    2acc:	09 c2 bf    	mov.b     0x209, WREG
    2ace:	00 68 a3    	btst.z    w0, #0x6
    2ad0:	f1 ff 3a    	bra       NZ, 0x2ab4 <.L226>
    2ad2:	00 00 05    	retlw.w   #0x0, w0

00002ad4 <_Sensors_Acquire>:
    2ad4:	11 c0 b3    	mov.b     #0x1, w1
    2ad6:	00 cc b3    	mov.b     #0xc0, w0
    2ad8:	eb fe 07    	rcall     0x28b0 <_I2C_ReadByte>
    2ada:	2f eb b7    	mov.b     WREG, 0xb2f
    2adc:	21 c0 b3    	mov.b     #0x2, w1
    2ade:	00 cc b3    	mov.b     #0xc0, w0
    2ae0:	e7 fe 07    	rcall     0x28b0 <_I2C_ReadByte>
    2ae2:	29 eb b7    	mov.b     WREG, 0xb29
    2ae4:	31 c0 b3    	mov.b     #0x3, w1
    2ae6:	00 cc b3    	mov.b     #0xc0, w0
    2ae8:	e3 fe 07    	rcall     0x28b0 <_I2C_ReadByte>
    2aea:	28 eb b7    	mov.b     WREG, 0xb28
    2aec:	91 b2 20    	mov.w     #0xb29, w1
    2aee:	91 40 78    	mov.b     [w1], w1
    2af0:	c2 08 dd    	sl.w      w1, #0x2, w1
    2af2:	c1 3f b2    	and.w     #0x3fc, w1
    2af4:	81 80 40    	add.w     w1, w1, w1
    2af6:	81 80 40    	add.w     w1, w1, w1
    2af8:	81 80 40    	add.w     w1, w1, w1
    2afa:	81 80 40    	add.w     w1, w1, w1
    2afc:	81 80 40    	add.w     w1, w1, w1
    2afe:	81 80 40    	add.w     w1, w1, w1
    2b00:	00 80 fb    	ze        w0, w0
    2b02:	80 80 40    	add.w     w1, w0, w1
    2b04:	61 59 88    	mov.w     w1, 0xb2c
    2b06:	80 40 eb    	clr.b     w1
    2b08:	00 ce b3    	mov.b     #0xe0, w0
    2b0a:	d2 fe 07    	rcall     0x28b0 <_I2C_ReadByte>
    2b0c:	e1 4f 40    	add.b     w0, #0x1, [w15]
    2b0e:	21 00 32    	bra       Z, 0x2b52 <.L230>
    2b10:	11 c0 b3    	mov.b     #0x1, w1
    2b12:	00 ce b3    	mov.b     #0xe0, w0
    2b14:	cd fe 07    	rcall     0x28b0 <_I2C_ReadByte>
    2b16:	2e eb b7    	mov.b     WREG, 0xb2e
    2b18:	21 c0 b3    	mov.b     #0x2, w1
    2b1a:	00 ce b3    	mov.b     #0xe0, w0
    2b1c:	c9 fe 07    	rcall     0x28b0 <_I2C_ReadByte>
    2b1e:	27 eb b7    	mov.b     WREG, 0xb27
    2b20:	31 c0 b3    	mov.b     #0x3, w1
    2b22:	00 ce b3    	mov.b     #0xe0, w0
    2b24:	c5 fe 07    	rcall     0x28b0 <_I2C_ReadByte>
    2b26:	26 eb b7    	mov.b     WREG, 0xb26
    2b28:	71 b2 20    	mov.w     #0xb27, w1
    2b2a:	91 40 78    	mov.b     [w1], w1
    2b2c:	c2 08 dd    	sl.w      w1, #0x2, w1
    2b2e:	c1 3f b2    	and.w     #0x3fc, w1
    2b30:	81 80 40    	add.w     w1, w1, w1
    2b32:	81 80 40    	add.w     w1, w1, w1
    2b34:	81 80 40    	add.w     w1, w1, w1
    2b36:	81 80 40    	add.w     w1, w1, w1
    2b38:	81 80 40    	add.w     w1, w1, w1
    2b3a:	81 80 40    	add.w     w1, w1, w1
    2b3c:	00 80 fb    	ze        w0, w0
    2b3e:	80 80 40    	add.w     w1, w0, w1
    2b40:	81 80 40    	add.w     w1, w1, w1
    2b42:	81 80 40    	add.w     w1, w1, w1
    2b44:	81 80 40    	add.w     w1, w1, w1
    2b46:	51 59 88    	mov.w     w1, 0xb2a
    2b48:	12 c5 b3    	mov.b     #0x51, w2
    2b4a:	80 40 eb    	clr.b     w1
    2b4c:	00 ce b3    	mov.b     #0xe0, w0
    2b4e:	50 ff 07    	rcall     0x29f0 <_I2C_WriteByte>
    2b50:	00 00 05    	retlw.w   #0x0, w0

00002b52 <.L230>:
    2b52:	2e 6b ef    	clr.b     0xb2e
    2b54:	27 6b ef    	clr.b     0xb27
    2b56:	26 6b ef    	clr.b     0xb26
    2b58:	2a 2b ef    	clr.w     0xb2a
    2b5a:	00 80 eb    	setm.w    w0
    2b5c:	00 00 06    	return    

00002b5e <_Serial_Init>:
    2b5e:	21 e2 a9    	bclr.b    0x221, #0x7
    2b60:	95 60 a9    	bclr.b    0x95, #0x3
    2b62:	95 80 a9    	bclr.b    0x95, #0x4
    2b64:	85 60 a9    	bclr.b    0x85, #0x3
    2b66:	85 80 a9    	bclr.b    0x85, #0x4
    2b68:	d3 c2 a9    	bclr.b    0x2d3, #0x6
    2b6a:	d3 e2 a9    	bclr.b    0x2d3, #0x7
    2b6c:	de 62 a9    	bclr.b    0x2de, #0x3
    2b6e:	de 42 a8    	bset.b    0x2de, #0x2
    2b70:	90 01 20    	mov.w     #0x19, w0
    2b72:	40 11 88    	mov.w     w0, 0x228
    2b74:	80 00 eb    	clr.w     w1
    2b76:	01 11 88    	mov.w     w1, 0x220
    2b78:	c0 cf b3    	mov.b     #0xfc, w0
    2b7a:	21 62 b6    	and.b     0x221
    2b7c:	20 62 a9    	bclr.b    0x220, #0x3
    2b7e:	21 e2 a8    	bset.b    0x221, #0x7
    2b80:	11 11 88    	mov.w     w1, 0x222
    2b82:	23 42 a8    	bset.b    0x223, #0x2
    2b84:	00 00 06    	return    

00002b86 <_Serial_Send>:
    2b86:	80 40 78    	mov.b     w0, w1

00002b88 <.L242>:
    2b88:	23 c2 bf    	mov.b     0x223, WREG
    2b8a:	00 18 a3    	btst.z    w0, #0x1
    2b8c:	fd ff 3a    	bra       NZ, 0x2b88 <.L242>
    2b8e:	01 80 fb    	ze        w1, w0
    2b90:	20 11 88    	mov.w     w0, 0x224

00002b92 <.L244>:
    2b92:	23 c2 bf    	mov.b     0x223, WREG
    2b94:	00 08 a3    	btst.z    w0, #0x0
    2b96:	fd ff 32    	bra       Z, 0x2b92 <.L244>
    2b98:	00 7d 20    	mov.w     #0x7d0, w0

00002b9a <.L246>:
    2b9a:	00 00 e9    	dec.w     w0, w0
    2b9c:	fe ff 3a    	bra       NZ, 0x2b9a <.L246>
    2b9e:	00 00 06    	return    

00002ba0 <_Serial_Send_Frame>:
    2ba0:	88 9f be    	mov.d     w8, [w15++]
    2ba2:	8a 9f be    	mov.d     w10, [w15++]
    2ba4:	8c 9f be    	mov.d     w12, [w15++]
    2ba6:	00 06 78    	mov.w     w0, w12
    2ba8:	01 04 e0    	cp0.b     w1
    2baa:	1f 00 32    	bra       Z, 0x2bea <.L267>
    2bac:	01 80 fb    	ze        w1, w0
    2bae:	00 05 e9    	dec.w     w0, w10
    2bb0:	0c 04 78    	mov.w     w12, w8
    2bb2:	80 46 eb    	clr.b     w13
    2bb4:	80 04 eb    	clr.w     w9
    2bb6:	01 40 e9    	dec.b     w1, w0
    2bb8:	00 80 fb    	ze        w0, w0
    2bba:	00 00 46    	add.w     w12, w0, w0
    2bbc:	80 05 e8    	inc.w     w0, w11
    2bbe:	89 0f 55    	sub.w     w10, w9, [w15]
    2bc0:	0e 00 32    	bra       Z, 0x2bde <.L269>

00002bc2 <.L265>:
    2bc2:	38 40 78    	mov.b     [w8++], w0
    2bc4:	e0 ff 07    	rcall     0x2b86 <_Serial_Send>
    2bc6:	0c 40 54    	sub.b     w8, w12, w0
    2bc8:	8b 0f 54    	sub.w     w8, w11, [w15]
    2bca:	0f 00 32    	bra       Z, 0x2bea <.L267>

00002bcc <.L261>:
    2bcc:	e2 4f 50    	sub.b     w0, #0x2, [w15]
    2bce:	04 00 36    	bra       LEU, 0x2bd8 <.L262>
    2bd0:	00 80 fb    	ze        w0, w0
    2bd2:	8a 0f 50    	sub.w     w0, w10, [w15]
    2bd4:	01 00 3d    	bra       GE, 0x2bd8 <.L262>
    2bd6:	98 c6 46    	add.b     w13, [w8], w13

00002bd8 <.L262>:
    2bd8:	89 04 e8    	inc.w     w9, w9
    2bda:	89 0f 55    	sub.w     w10, w9, [w15]
    2bdc:	f2 ff 3a    	bra       NZ, 0x2bc2 <.L265>

00002bde <.L269>:
    2bde:	0d cc ea    	com.b     w13, [w8]
    2be0:	38 40 78    	mov.b     [w8++], w0
    2be2:	d1 ff 07    	rcall     0x2b86 <_Serial_Send>
    2be4:	0c 40 54    	sub.b     w8, w12, w0
    2be6:	8b 0f 54    	sub.w     w8, w11, [w15]
    2be8:	f1 ff 3a    	bra       NZ, 0x2bcc <.L261>

00002bea <.L267>:
    2bea:	4f 06 be    	mov.d     [--w15], w12
    2bec:	4f 05 be    	mov.d     [--w15], w10
    2bee:	4f 04 be    	mov.d     [--w15], w8
    2bf0:	00 00 06    	return    

00002bf2 <_Serial_Receive>:
    2bf2:	80 00 78    	mov.w     w0, w1
    2bf4:	22 c2 bf    	mov.b     0x222, WREG
    2bf6:	00 18 a3    	btst.z    w0, #0x1
    2bf8:	06 00 3a    	bra       NZ, 0x2c06 <.L279>
    2bfa:	22 c2 bf    	mov.b     0x222, WREG
    2bfc:	61 40 60    	and.b     w0, #0x1, w0
    2bfe:	06 00 32    	bra       Z, 0x2c0c <.L275>
    2c00:	30 11 80    	mov.w     0x226, w0
    2c02:	80 48 78    	mov.b     w0, [w1]
    2c04:	00 00 05    	retlw.w   #0x0, w0

00002c06 <.L279>:
    2c06:	22 22 a9    	bclr.b    0x222, #0x1
    2c08:	e0 ff 2f    	mov.w     #0xfffe, w0
    2c0a:	00 00 06    	return    

00002c0c <.L275>:
    2c0c:	80 48 78    	mov.b     w0, [w1]
    2c0e:	00 80 eb    	setm.w    w0
    2c10:	00 00 06    	return    

00002c12 <_Serial_Receive_Frame>:
    2c12:	88 9f be    	mov.d     w8, [w15++]
    2c14:	8a 1f 78    	mov.w     w10, [w15++]
    2c16:	00 04 78    	mov.w     w0, w8
    2c18:	01 45 78    	mov.b     w1, w10
    2c1a:	01 04 e0    	cp0.b     w1
    2c1c:	0d 00 32    	bra       Z, 0x2c38 <.L287>
    2c1e:	80 44 eb    	clr.b     w9

00002c20 <.L298>:
    2c20:	85 c0 bf    	mov.b     0x85, WREG
    2c22:	00 38 a3    	btst.z    w0, #0x3
    2c24:	fd ff 32    	bra       Z, 0x2c20 <.L298>

00002c26 <.L292>:
    2c26:	08 00 78    	mov.w     w8, w0
    2c28:	08 04 e8    	inc.w     w8, w8
    2c2a:	e3 ff 07    	rcall     0x2bf2 <_Serial_Receive>
    2c2c:	00 00 e0    	cp0.w     w0
    2c2e:	fb ff 3a    	bra       NZ, 0x2c26 <.L292>
    2c30:	85 60 a9    	bclr.b    0x85, #0x3
    2c32:	89 44 e8    	inc.b     w9, w9
    2c34:	89 4f 55    	sub.b     w10, w9, [w15]
    2c36:	f4 ff 3a    	bra       NZ, 0x2c20 <.L298>

00002c38 <.L287>:
    2c38:	4f 05 78    	mov.w     [--w15], w10
    2c3a:	4f 04 be    	mov.d     [--w15], w8
    2c3c:	00 00 06    	return    

00002c3e <_EE_alarm_insert>:
    2c3e:	88 9f be    	mov.d     w8, [w15++]
    2c40:	8a 1f 78    	mov.w     w10, [w15++]
    2c42:	80 04 78    	mov.w     w0, w9
    2c44:	01 03 78    	mov.w     w1, w6
    2c46:	00 00 40    	add.w     w0, w0, w0
    2c48:	00 00 40    	add.w     w0, w0, w0
    2c4a:	00 00 40    	add.w     w0, w0, w0
    2c4c:	e1 bc 28    	mov.w     #0x8bce, w1
    2c4e:	60 80 78    	mov.w     [w0+w1], w0
    2c50:	00 00 40    	add.w     w0, w0, w0
    2c52:	80 00 40    	add.w     w0, w0, w1
    2c54:	01 80 e8    	inc2.w    w1, w0
    2c56:	a8 b0 20    	mov.w     #0xb0a, w8
    2c58:	60 02 7c    	mov.w     [w0+w8], w4
    2c5a:	e1 0f 42    	add.w     w4, #0x1, [w15]
    2c5c:	2e 00 32    	bra       Z, 0x2cba <.L15>
    2c5e:	66 21 b9    	mul.su    w4, #0x6, w2
    2c60:	02 05 78    	mov.w     w2, w10
    2c62:	02 80 e8    	inc2.w    w2, w0
    2c64:	07 ac 20    	mov.w     #0xac0, w7
    2c66:	e0 82 7b    	mov.w     [w0+w7], w5
    2c68:	86 8f 52    	sub.w     w5, w6, [w15]
    2c6a:	1a 00 3c    	bra       GT, 0x2ca0 <.L16>

00002c6c <.L13>:
    2c6c:	02 02 78    	mov.w     w2, w4
    2c6e:	02 80 e8    	inc2.w    w2, w0
    2c70:	60 80 7b    	mov.w     [w0+w7], w0
    2c72:	00 03 53    	sub.w     w6, w0, w6
    2c74:	64 00 41    	add.w     w2, #0x4, w0
    2c76:	e0 80 7b    	mov.w     [w0+w7], w1
    2c78:	e1 8f 40    	add.w     w1, #0x1, [w15]
    2c7a:	2a 00 32    	bra       Z, 0x2cd0 <.L12>
    2c7c:	66 09 b9    	mul.su    w1, #0x6, w2
    2c7e:	82 02 78    	mov.w     w2, w5
    2c80:	02 80 e8    	inc2.w    w2, w0
    2c82:	60 80 7b    	mov.w     [w0+w7], w0
    2c84:	80 0f 53    	sub.w     w6, w0, [w15]
    2c86:	f2 ff 3d    	bra       GE, 0x2c6c <.L13>
    2c88:	23 ac 20    	mov.w     #0xac2, w3
    2c8a:	06 00 50    	sub.w     w0, w6, w0
    2c8c:	80 b2 79    	mov.w     w0, [w5+w3]
    2c8e:	42 ac 20    	mov.w     #0xac4, w2
    2c90:	09 32 79    	mov.w     w9, [w4+w2]
    2c92:	01 02 78    	mov.w     w1, w4

00002c94 <.L4>:
    2c94:	66 48 b9    	mul.su    w9, #0x6, w0
    2c96:	06 b0 79    	mov.w     w6, [w0+w3]
    2c98:	04 30 79    	mov.w     w4, [w0+w2]
    2c9a:	4f 05 78    	mov.w     [--w15], w10
    2c9c:	4f 04 be    	mov.d     [--w15], w8
    2c9e:	00 00 06    	return    

00002ca0 <.L16>:
    2ca0:	08 80 e8    	inc2.w    w8, w0
    2ca2:	89 30 78    	mov.w     w9, [w1+w0]
    2ca4:	87 81 e8    	inc2.w    w7, w3
    2ca6:	06 80 52    	sub.w     w5, w6, w0
    2ca8:	00 b5 79    	mov.w     w0, [w10+w3]
    2caa:	64 81 43    	add.w     w7, #0x4, w2
    2cac:	66 48 b9    	mul.su    w9, #0x6, w0
    2cae:	06 b0 79    	mov.w     w6, [w0+w3]
    2cb0:	04 30 79    	mov.w     w4, [w0+w2]
    2cb2:	4f 05 78    	mov.w     [--w15], w10
    2cb4:	4f 04 be    	mov.d     [--w15], w8
    2cb6:	00 00 06    	return    
    2cb8:	f3 ff 37    	bra       0x2ca0 <.L16>

00002cba <.L15>:
    2cba:	08 80 e8    	inc2.w    w8, w0
    2cbc:	89 30 78    	mov.w     w9, [w1+w0]
    2cbe:	23 ac 20    	mov.w     #0xac2, w3
    2cc0:	03 81 e8    	inc2.w    w3, w2
    2cc2:	66 48 b9    	mul.su    w9, #0x6, w0
    2cc4:	06 b0 79    	mov.w     w6, [w0+w3]
    2cc6:	04 30 79    	mov.w     w4, [w0+w2]
    2cc8:	4f 05 78    	mov.w     [--w15], w10
    2cca:	4f 04 be    	mov.d     [--w15], w8
    2ccc:	00 00 06    	return    
    2cce:	e8 ff 37    	bra       0x2ca0 <.L16>

00002cd0 <.L12>:
    2cd0:	23 ac 20    	mov.w     #0xac2, w3
    2cd2:	42 ac 20    	mov.w     #0xac4, w2
    2cd4:	09 32 79    	mov.w     w9, [w4+w2]
    2cd6:	01 02 78    	mov.w     w1, w4
    2cd8:	dd ff 37    	bra       0x2c94 <.L4>

00002cda <_EE_alarm_CounterTick>:
    2cda:	e4 87 47    	add.w     w15, #0x4, w15
    2cdc:	88 9f be    	mov.d     w8, [w15++]
    2cde:	8a 9f be    	mov.d     w10, [w15++]
    2ce0:	8c 9f be    	mov.d     w12, [w15++]
    2ce2:	8e 1f 78    	mov.w     w14, [w15++]

00002ce4 <.bb>:
    2ce4:	11 02 80    	mov.w     0x42, w1
    2ce6:	81 bf 9f    	mov.w     w1, [w15-16]
    2ce8:	21 04 20    	mov.w     #0x42, w1
    2cea:	91 40 78    	mov.b     [w1], w1
    2cec:	ff c0 60    	and.b     w1, #0x1f, w1
    2cee:	02 cc b3    	mov.b     #0xc0, w2
    2cf0:	82 c0 70    	ior.b     w1, w2, w1
    2cf2:	80 00 fd    	exch      w0, w1
    2cf4:	42 e0 b7    	mov.b     WREG, 0x42
    2cf6:	80 00 fd    	exch      w0, w1

00002cf8 <.eb>:
    2cf8:	00 00 40    	add.w     w0, w0, w0
    2cfa:	80 00 40    	add.w     w0, w0, w1
    2cfc:	a2 b0 20    	mov.w     #0xb0a, w2
    2cfe:	02 80 40    	add.w     w1, w2, w0
    2d00:	10 08 e8    	inc.w     [w0], [w0]
    2d02:	01 80 e8    	inc2.w    w1, w0
    2d04:	60 05 79    	mov.w     [w0+w2], w10
    2d06:	e1 0f 45    	add.w     w10, #0x1, [w15]
    2d08:	26 00 32    	bra       Z, 0x2d56 <.L20>
    2d0a:	66 54 b9    	mul.su    w10, #0x6, w8
    2d0c:	20 ac 20    	mov.w     #0xac2, w0
    2d0e:	08 00 40    	add.w     w0, w8, w0
    2d10:	0d ac 20    	mov.w     #0xac0, w13
    2d12:	10 08 e9    	dec.w     [w0], [w0]
    2d14:	01 07 78    	mov.w     w1, w14
    2d16:	08 80 e8    	inc2.w    w8, w0
    2d18:	60 80 7e    	mov.w     [w0+w13], w0
    2d1a:	00 00 e0    	cp0.w     w0
    2d1c:	1c 00 3a    	bra       NZ, 0x2d56 <.L20>

00002d1e <.L23>:
    2d1e:	e3 bc 28    	mov.w     #0x8bce, w3
    2d20:	0a 00 45    	add.w     w10, w10, w0
    2d22:	00 00 40    	add.w     w0, w0, w0
    2d24:	80 00 40    	add.w     w0, w0, w1
    2d26:	01 80 e8    	inc2.w    w1, w0
    2d28:	03 00 40    	add.w     w0, w3, w0
    2d2a:	10 41 78    	mov.b     [w0], w2
    2d2c:	10 04 e0    	cp0.b     [w0]
    2d2e:	29 00 32    	bra       Z, 0x2d82 <.L25>
    2d30:	e1 4f 51    	sub.b     w2, #0x1, [w15]
    2d32:	1c 00 32    	bra       Z, 0x2d6c <.L33>
    2d34:	64 00 44    	add.w     w8, #0x4, w0
    2d36:	60 80 7e    	mov.w     [w0+w13], w0
    2d38:	c2 b0 20    	mov.w     #0xb0c, w2
    2d3a:	00 37 79    	mov.w     w0, [w14+w2]
    2d3c:	e8 80 7e    	mov.w     [w8+w13], w1
    2d3e:	01 00 e0    	cp0.w     w1
    2d40:	12 00 3a    	bra       NZ, 0x2d66 <.L34>

00002d42 <.L29>:
    2d42:	0e 80 e8    	inc2.w    w14, w0
    2d44:	a1 b0 20    	mov.w     #0xb0a, w1
    2d46:	60 85 78    	mov.w     [w0+w1], w10
    2d48:	e1 0f 45    	add.w     w10, #0x1, [w15]
    2d4a:	05 00 32    	bra       Z, 0x2d56 <.L20>
    2d4c:	66 54 b9    	mul.su    w10, #0x6, w8
    2d4e:	08 80 e8    	inc2.w    w8, w0
    2d50:	60 80 7e    	mov.w     [w0+w13], w0
    2d52:	00 00 e0    	cp0.w     w0
    2d54:	e4 ff 32    	bra       Z, 0x2d1e <.L23>

00002d56 <.L20>:
    2d56:	0f b9 97    	mov.w     [w15-16], w2
    2d58:	12 02 88    	mov.w     w2, 0x42

00002d5a <.eb>:
    2d5a:	4f 07 78    	mov.w     [--w15], w14
    2d5c:	4f 06 be    	mov.d     [--w15], w12
    2d5e:	4f 05 be    	mov.d     [--w15], w10
    2d60:	4f 04 be    	mov.d     [--w15], w8
    2d62:	4f 00 b1    	sub.w     #0x4, w15
    2d64:	00 00 06    	return    

00002d66 <.L34>:
    2d66:	0a 00 78    	mov.w     w10, w0
    2d68:	6a ff 07    	rcall     0x2c3e <_EE_alarm_insert>
    2d6a:	eb ff 37    	bra       0x2d42 <.L29>

00002d6c <.L33>:
    2d6c:	66 80 40    	add.w     w1, #0x6, w0
    2d6e:	60 80 79    	mov.w     [w0+w3], w0
    2d70:	00 00 01    	call      w0
    2d72:	64 00 44    	add.w     w8, #0x4, w0
    2d74:	60 80 7e    	mov.w     [w0+w13], w0
    2d76:	c2 b0 20    	mov.w     #0xb0c, w2
    2d78:	00 37 79    	mov.w     w0, [w14+w2]
    2d7a:	e8 80 7e    	mov.w     [w8+w13], w1
    2d7c:	01 00 e0    	cp0.w     w1
    2d7e:	e1 ff 32    	bra       Z, 0x2d42 <.L29>
    2d80:	f2 ff 37    	bra       0x2d66 <.L34>

00002d82 <.L25>:
    2d82:	64 80 40    	add.w     w1, #0x4, w0
    2d84:	e0 80 79    	mov.w     [w0+w3], w1
    2d86:	81 85 40    	add.w     w1, w1, w11
    2d88:	8c af 20    	mov.w     #0xaf8, w12
    2d8a:	6b 00 7e    	mov.w     [w11+w12], w0
    2d8c:	00 00 e0    	cp0.w     w0
    2d8e:	0a 00 32    	bra       Z, 0x2da4 <.L35>
    2d90:	0c 80 45    	add.w     w11, w12, w0
    2d92:	10 08 e8    	inc.w     [w0], [w0]

00002d94 <.L36>:
    2d94:	64 00 44    	add.w     w8, #0x4, w0
    2d96:	60 80 7e    	mov.w     [w0+w13], w0
    2d98:	c2 b0 20    	mov.w     #0xb0c, w2
    2d9a:	00 37 79    	mov.w     w0, [w14+w2]
    2d9c:	e8 80 7e    	mov.w     [w8+w13], w1
    2d9e:	01 00 e0    	cp0.w     w1
    2da0:	d0 ff 32    	bra       Z, 0x2d42 <.L29>
    2da2:	e1 ff 37    	bra       0x2d66 <.L34>

00002da4 <.L35>:
    2da4:	01 00 78    	mov.w     w1, w0
    2da6:	1e 01 07    	rcall     0x2fe4 <_EE_rq_insert>
    2da8:	0c 80 45    	add.w     w11, w12, w0
    2daa:	10 08 e8    	inc.w     [w0], [w0]
    2dac:	f3 ff 37    	bra       0x2d94 <.L36>

00002dae <_ISR2_EE_EXPLORER16_IRQ_HANDLER_NAME>:
    2dae:	c0 59 80    	mov.w     0xb38, w0
    2db0:	00 00 e0    	cp0.w     w0
    2db2:	01 00 32    	bra       Z, 0x2db6 <.L2>
    2db4:	00 00 01    	call      w0

00002db6 <.L2>:
    2db6:	86 60 a9    	bclr.b    0x86, #0x3
    2db8:	00 00 06    	return    

00002dba <_ISR2_EE_EXPLORER16_INT_VECT>:
    2dba:	85 a0 a9    	bclr.b    0x85, #0x5
    2dbc:	34 0b e2    	cp0.w     0xb34
    2dbe:	07 00 3a    	bra       NZ, 0x2dce <.L8>
    2dc0:	00 18 80    	mov.w     0x300, w0
    2dc2:	90 59 88    	mov.w     w0, 0xb32
    2dc4:	50 00 20    	mov.w     #0x5, w0
    2dc6:	40 19 88    	mov.w     w0, 0x328
    2dc8:	10 00 20    	mov.w     #0x1, w0
    2dca:	a0 59 88    	mov.w     w0, 0xb34
    2dcc:	00 00 06    	return    

00002dce <.L8>:
    2dce:	00 18 80    	mov.w     0x300, w0
    2dd0:	80 59 88    	mov.w     w0, 0xb30
    2dd2:	40 00 20    	mov.w     #0x4, w0
    2dd4:	40 19 88    	mov.w     w0, 0x328
    2dd6:	34 2b ef    	clr.w     0xb34
    2dd8:	00 00 06    	return    

00002dda <__ADC1Interrupt>:
    2dda:	36 00 f8    	push      0x36
    2ddc:	80 9f be    	mov.d     w0, [w15++]
    2dde:	82 9f be    	mov.d     w2, [w15++]
    2de0:	84 9f be    	mov.d     w4, [w15++]
    2de2:	86 9f be    	mov.d     w6, [w15++]
    2de4:	88 1f 78    	mov.w     w8, [w15++]
    2de6:	34 00 f8    	push      0x34
    2de8:	00 c0 b3    	mov.b     #0x0, w0
    2dea:	a0 01 88    	mov.w     w0, 0x34

00002dec <.bb>:
    2dec:	11 02 80    	mov.w     0x42, w1
    2dee:	42 c0 bf    	mov.b     0x42, WREG
    2df0:	7f 40 60    	and.b     w0, #0x1f, w0
    2df2:	08 cc b3    	mov.b     #0xc0, w8
    2df4:	08 40 70    	ior.b     w0, w8, w0
    2df6:	42 e0 b7    	mov.b     WREG, 0x42

00002df8 <.eb>:
    2df8:	3c 2b ec    	inc.w     0xb3c

00002dfa <.bb>:
